
firmware.elf:     file format elf32-littleriscv
firmware.elf
architecture: riscv:rv32, flags 0x00000112:
EXEC_P, HAS_SYMS, D_PAGED
start address 0x00000000

Program Header:
    LOAD off    0x00001000 vaddr 0x00000000 paddr 0x00000000 align 2**12
         filesz 0x0000d050 memsz 0x0000d050 flags rwx

Sections:
Idx Name          Size      VMA       LMA       File off  Algn
  0 .memory       0000d050  00000000  00000000  00001000  2**9
                  CONTENTS, ALLOC, LOAD, CODE
SYMBOL TABLE:
00000000 l    d  .memory	00000000 .memory
00000000 l    df *ABS*	00000000 start.o
00000000 l       .memory	00000000 reset_vec
00000480 l       .memory	00000000 start
00000010 l       .memory	00000000 irq_vec
00000200 l       .memory	00000000 irq_regs
00000480 l       .memory	00000000 irq_stack
00000000 l    df *ABS*	00000000 irq.c
0000c4c0 l     O .memory	00000004 ext_irq_4_count.2
0000c4bc l     O .memory	00000004 ext_irq_5_count.1
0000c4b8 l     O .memory	00000004 timer_irq_count.0
00000000 l    df *ABS*	00000000 print.c
00000000 l    df *ABS*	00000000 hello.c
00000000 l    df *ABS*	00000000 sieve.c
000009ca l     F .memory	0000009c print_prime
0000c54c l     O .memory	00000004 hash
0000c550 l     O .memory	00000008 bitmap
00000000 l    df *ABS*	00000000 multest.c
00000b5a l     F .memory	0000001e xorshift32
0000c57c l     O .memory	00000004 x.0
00000000 l    df *ABS*	00000000 stats.c
00000e4a l     F .memory	00000094 stats_print_dec
00000000 l    df *ABS*	00000000 test_abc.c
00000000 l    df *ABS*	00000000 addi.o
00001424 l       .memory	00000000 .test_name
00001410 l       .memory	00000000 .prname_next
0000142c l       .memory	00000000 .prname_done
00001438 l       .memory	00000000 test_2
000016c0 l       .memory	00000000 fail
0000144c l       .memory	00000000 test_3
00001460 l       .memory	00000000 test_4
00001474 l       .memory	00000000 test_5
00001488 l       .memory	00000000 test_6
0000149c l       .memory	00000000 test_7
000014b4 l       .memory	00000000 test_8
000014c8 l       .memory	00000000 test_9
000014e4 l       .memory	00000000 test_10
00001500 l       .memory	00000000 test_11
00001518 l       .memory	00000000 test_12
00001534 l       .memory	00000000 test_13
00001548 l       .memory	00000000 test_14
0000155c l       .memory	00000000 test_15
00001570 l       .memory	00000000 test_16
00001588 l       .memory	00000000 test_17
0000159c l       .memory	00000000 test_18
000015c4 l       .memory	00000000 test_19
000015f0 l       .memory	00000000 test_20
00001620 l       .memory	00000000 test_21
00001644 l       .memory	00000000 test_22
0000166c l       .memory	00000000 test_23
00001698 l       .memory	00000000 test_24
000016a8 l       .memory	00000000 test_25
000016f0 l       .memory	00000000 pass
00000000 l    df *ABS*	00000000 add.o
00001730 l       .memory	00000000 .test_name
0000171c l       .memory	00000000 .prname_next
00001734 l       .memory	00000000 .prname_done
00001740 l       .memory	00000000 test_2
00001c20 l       .memory	00000000 fail
00001758 l       .memory	00000000 test_3
00001770 l       .memory	00000000 test_4
00001788 l       .memory	00000000 test_5
000017a0 l       .memory	00000000 test_6
000017b8 l       .memory	00000000 test_7
000017d0 l       .memory	00000000 test_8
000017f0 l       .memory	00000000 test_9
00001810 l       .memory	00000000 test_10
00001834 l       .memory	00000000 test_11
00001854 l       .memory	00000000 test_12
00001874 l       .memory	00000000 test_13
0000188c l       .memory	00000000 test_14
000018a4 l       .memory	00000000 test_15
000018bc l       .memory	00000000 test_16
000018d8 l       .memory	00000000 test_17
000018f0 l       .memory	00000000 test_18
00001908 l       .memory	00000000 test_19
0000191c l       .memory	00000000 test_20
00001948 l       .memory	00000000 test_21
00001978 l       .memory	00000000 test_22
000019ac l       .memory	00000000 test_23
000019d4 l       .memory	00000000 test_24
00001a00 l       .memory	00000000 test_25
00001a30 l       .memory	00000000 test_26
00001a5c l       .memory	00000000 test_27
00001a8c l       .memory	00000000 test_28
00001abc l       .memory	00000000 test_29
00001ae4 l       .memory	00000000 test_30
00001b10 l       .memory	00000000 test_31
00001b40 l       .memory	00000000 test_32
00001b6c l       .memory	00000000 test_33
00001b9c l       .memory	00000000 test_34
00001bcc l       .memory	00000000 test_35
00001be0 l       .memory	00000000 test_36
00001bf4 l       .memory	00000000 test_37
00001c04 l       .memory	00000000 test_38
00001c50 l       .memory	00000000 pass
00000000 l    df *ABS*	00000000 andi.o
00001c90 l       .memory	00000000 .test_name
00001c7c l       .memory	00000000 .prname_next
00001c98 l       .memory	00000000 .prname_done
00001ca4 l       .memory	00000000 test_2
00001e64 l       .memory	00000000 fail
00001cc0 l       .memory	00000000 test_3
00001cd8 l       .memory	00000000 test_4
00001cf0 l       .memory	00000000 test_5
00001d08 l       .memory	00000000 test_6
00001d20 l       .memory	00000000 test_7
00001d4c l       .memory	00000000 test_8
00001d7c l       .memory	00000000 test_9
00001db4 l       .memory	00000000 test_10
00001ddc l       .memory	00000000 test_11
00001e08 l       .memory	00000000 test_12
00001e38 l       .memory	00000000 test_13
00001e48 l       .memory	00000000 test_14
00001e94 l       .memory	00000000 pass
00000000 l    df *ABS*	00000000 and.o
00001ed4 l       .memory	00000000 .test_name
00001ec0 l       .memory	00000000 .prname_next
00001ed8 l       .memory	00000000 .prname_done
00001ee4 l       .memory	00000000 test_2
0000239c l       .memory	00000000 fail
00001f08 l       .memory	00000000 test_3
00001f2c l       .memory	00000000 test_4
00001f50 l       .memory	00000000 test_5
00001f70 l       .memory	00000000 test_6
00001f94 l       .memory	00000000 test_7
00001fb8 l       .memory	00000000 test_8
00001fd4 l       .memory	00000000 test_9
0000200c l       .memory	00000000 test_10
00002048 l       .memory	00000000 test_11
00002088 l       .memory	00000000 test_12
000020bc l       .memory	00000000 test_13
000020f4 l       .memory	00000000 test_14
00002130 l       .memory	00000000 test_15
00002168 l       .memory	00000000 test_16
000021a4 l       .memory	00000000 test_17
000021e0 l       .memory	00000000 test_18
00002214 l       .memory	00000000 test_19
0000224c l       .memory	00000000 test_20
00002288 l       .memory	00000000 test_21
000022c0 l       .memory	00000000 test_22
000022fc l       .memory	00000000 test_23
00002338 l       .memory	00000000 test_24
00002350 l       .memory	00000000 test_25
00002368 l       .memory	00000000 test_26
00002378 l       .memory	00000000 test_27
000023cc l       .memory	00000000 pass
00000000 l    df *ABS*	00000000 auipc.o
00002410 l       .memory	00000000 .test_name
000023fc l       .memory	00000000 .prname_next
00002418 l       .memory	00000000 .prname_done
00002424 l       .memory	00000000 test_2
0000246c l       .memory	00000000 fail
00002448 l       .memory	00000000 test_3
0000249c l       .memory	00000000 pass
00000000 l    df *ABS*	00000000 beq.o
000024dc l       .memory	00000000 .test_name
000024c8 l       .memory	00000000 .prname_next
000024e0 l       .memory	00000000 .prname_done
000024ec l       .memory	00000000 test_2
000027ac l       .memory	00000000 fail
0000250c l       .memory	00000000 test_3
0000252c l       .memory	00000000 test_4
0000254c l       .memory	00000000 test_5
00002568 l       .memory	00000000 test_6
00002584 l       .memory	00000000 test_7
000025a0 l       .memory	00000000 test_8
000025bc l       .memory	00000000 test_9
000025dc l       .memory	00000000 test_10
00002600 l       .memory	00000000 test_11
00002628 l       .memory	00000000 test_12
0000264c l       .memory	00000000 test_13
00002674 l       .memory	00000000 test_14
0000269c l       .memory	00000000 test_15
000026bc l       .memory	00000000 test_16
000026e0 l       .memory	00000000 test_17
00002708 l       .memory	00000000 test_18
0000272c l       .memory	00000000 test_19
00002754 l       .memory	00000000 test_20
0000277c l       .memory	00000000 test_21
000027dc l       .memory	00000000 pass
00000000 l    df *ABS*	00000000 bge.o
0000281c l       .memory	00000000 .test_name
00002808 l       .memory	00000000 .prname_next
00002820 l       .memory	00000000 .prname_done
0000282c l       .memory	00000000 test_2
00002b4c l       .memory	00000000 fail
0000284c l       .memory	00000000 test_3
0000286c l       .memory	00000000 test_4
0000288c l       .memory	00000000 test_5
000028ac l       .memory	00000000 test_6
000028cc l       .memory	00000000 test_7
000028ec l       .memory	00000000 test_8
00002908 l       .memory	00000000 test_9
00002924 l       .memory	00000000 test_10
00002940 l       .memory	00000000 test_11
0000295c l       .memory	00000000 test_12
0000297c l       .memory	00000000 test_13
000029a0 l       .memory	00000000 test_14
000029c8 l       .memory	00000000 test_15
000029ec l       .memory	00000000 test_16
00002a14 l       .memory	00000000 test_17
00002a3c l       .memory	00000000 test_18
00002a5c l       .memory	00000000 test_19
00002a80 l       .memory	00000000 test_20
00002aa8 l       .memory	00000000 test_21
00002acc l       .memory	00000000 test_22
00002af4 l       .memory	00000000 test_23
00002b1c l       .memory	00000000 test_24
00002b7c l       .memory	00000000 pass
00000000 l    df *ABS*	00000000 bgeu.o
00002bbc l       .memory	00000000 .test_name
00002ba8 l       .memory	00000000 .prname_next
00002bc4 l       .memory	00000000 .prname_done
00002bd0 l       .memory	00000000 test_2
00002f24 l       .memory	00000000 fail
00002bf0 l       .memory	00000000 test_3
00002c10 l       .memory	00000000 test_4
00002c30 l       .memory	00000000 test_5
00002c50 l       .memory	00000000 test_6
00002c70 l       .memory	00000000 test_7
00002c90 l       .memory	00000000 test_8
00002cac l       .memory	00000000 test_9
00002cc8 l       .memory	00000000 test_10
00002ce4 l       .memory	00000000 test_11
00002d04 l       .memory	00000000 test_12
00002d28 l       .memory	00000000 test_13
00002d50 l       .memory	00000000 test_14
00002d7c l       .memory	00000000 test_15
00002da4 l       .memory	00000000 test_16
00002dd0 l       .memory	00000000 test_17
00002dfc l       .memory	00000000 test_18
00002e20 l       .memory	00000000 test_19
00002e48 l       .memory	00000000 test_20
00002e74 l       .memory	00000000 test_21
00002e9c l       .memory	00000000 test_22
00002ec8 l       .memory	00000000 test_23
00002ef4 l       .memory	00000000 test_24
00002f54 l       .memory	00000000 pass
00000000 l    df *ABS*	00000000 blt.o
00002f94 l       .memory	00000000 .test_name
00002f80 l       .memory	00000000 .prname_next
00002f98 l       .memory	00000000 .prname_done
00002fa4 l       .memory	00000000 test_2
00003264 l       .memory	00000000 fail
00002fc4 l       .memory	00000000 test_3
00002fe4 l       .memory	00000000 test_4
00003004 l       .memory	00000000 test_5
00003020 l       .memory	00000000 test_6
0000303c l       .memory	00000000 test_7
00003058 l       .memory	00000000 test_8
00003074 l       .memory	00000000 test_9
00003094 l       .memory	00000000 test_10
000030b8 l       .memory	00000000 test_11
000030e0 l       .memory	00000000 test_12
00003104 l       .memory	00000000 test_13
0000312c l       .memory	00000000 test_14
00003154 l       .memory	00000000 test_15
00003174 l       .memory	00000000 test_16
00003198 l       .memory	00000000 test_17
000031c0 l       .memory	00000000 test_18
000031e4 l       .memory	00000000 test_19
0000320c l       .memory	00000000 test_20
00003234 l       .memory	00000000 test_21
00003294 l       .memory	00000000 pass
00000000 l    df *ABS*	00000000 bltu.o
000032d4 l       .memory	00000000 .test_name
000032c0 l       .memory	00000000 .prname_next
000032dc l       .memory	00000000 .prname_done
000032e8 l       .memory	00000000 test_2
000035dc l       .memory	00000000 fail
00003308 l       .memory	00000000 test_3
00003328 l       .memory	00000000 test_4
00003348 l       .memory	00000000 test_5
00003364 l       .memory	00000000 test_6
00003380 l       .memory	00000000 test_7
0000339c l       .memory	00000000 test_8
000033bc l       .memory	00000000 test_9
000033e0 l       .memory	00000000 test_10
00003408 l       .memory	00000000 test_11
00003434 l       .memory	00000000 test_12
0000345c l       .memory	00000000 test_13
00003488 l       .memory	00000000 test_14
000034b4 l       .memory	00000000 test_15
000034d8 l       .memory	00000000 test_16
00003500 l       .memory	00000000 test_17
0000352c l       .memory	00000000 test_18
00003554 l       .memory	00000000 test_19
00003580 l       .memory	00000000 test_20
000035ac l       .memory	00000000 test_21
0000360c l       .memory	00000000 pass
00000000 l    df *ABS*	00000000 bne.o
0000364c l       .memory	00000000 .test_name
00003638 l       .memory	00000000 .prname_next
00003650 l       .memory	00000000 .prname_done
0000365c l       .memory	00000000 test_2
00003920 l       .memory	00000000 fail
0000367c l       .memory	00000000 test_3
0000369c l       .memory	00000000 test_4
000036bc l       .memory	00000000 test_5
000036dc l       .memory	00000000 test_6
000036f8 l       .memory	00000000 test_7
00003714 l       .memory	00000000 test_8
00003730 l       .memory	00000000 test_9
00003750 l       .memory	00000000 test_10
00003774 l       .memory	00000000 test_11
0000379c l       .memory	00000000 test_12
000037c0 l       .memory	00000000 test_13
000037e8 l       .memory	00000000 test_14
00003810 l       .memory	00000000 test_15
00003830 l       .memory	00000000 test_16
00003854 l       .memory	00000000 test_17
0000387c l       .memory	00000000 test_18
000038a0 l       .memory	00000000 test_19
000038c8 l       .memory	00000000 test_20
000038f0 l       .memory	00000000 test_21
00003950 l       .memory	00000000 pass
00000000 l    df *ABS*	00000000 div.o
00003990 l       .memory	00000000 .test_name
0000397c l       .memory	00000000 .prname_next
00003994 l       .memory	00000000 .prname_done
000039a0 l       .memory	00000000 test_2
00003a7c l       .memory	00000000 fail
000039b8 l       .memory	00000000 test_3
000039d0 l       .memory	00000000 test_4
000039e8 l       .memory	00000000 test_5
00003a00 l       .memory	00000000 test_6
00003a18 l       .memory	00000000 test_7
00003a30 l       .memory	00000000 test_8
00003a48 l       .memory	00000000 test_9
00003a60 l       .memory	00000000 test_10
00003aac l       .memory	00000000 pass
00000000 l    df *ABS*	00000000 divu.o
00003aec l       .memory	00000000 .test_name
00003ad8 l       .memory	00000000 .prname_next
00003af4 l       .memory	00000000 .prname_done
00003b00 l       .memory	00000000 test_2
00003be0 l       .memory	00000000 fail
00003b18 l       .memory	00000000 test_3
00003b34 l       .memory	00000000 test_4
00003b4c l       .memory	00000000 test_5
00003b64 l       .memory	00000000 test_6
00003b7c l       .memory	00000000 test_7
00003b94 l       .memory	00000000 test_8
00003bac l       .memory	00000000 test_9
00003bc4 l       .memory	00000000 test_10
00003c10 l       .memory	00000000 pass
00000000 l    df *ABS*	00000000 jalr.o
00003c50 l       .memory	00000000 .test_name
00003c3c l       .memory	00000000 .prname_next
00003c58 l       .memory	00000000 .prname_done
00003c64 l       .memory	00000000 test_2
00003c84 l       .memory	00000000 target_2
00003c74 l       .memory	00000000 linkaddr_2
00003d64 l       .memory	00000000 fail
00003c94 l       .memory	00000000 test_3
00003cb0 l       .memory	00000000 target_3
00003ca4 l       .memory	00000000 linkaddr_3
00003cb4 l       .memory	00000000 test_4
00003cd8 l       .memory	00000000 test_5
00003d00 l       .memory	00000000 test_6
00003d2c l       .memory	00000000 test_7
00003d94 l       .memory	00000000 pass
00000000 l    df *ABS*	00000000 jal.o
00003dd4 l       .memory	00000000 .test_name
00003dc0 l       .memory	00000000 .prname_next
00003dd8 l       .memory	00000000 .prname_done
00003de4 l       .memory	00000000 test_2
00003dec l       .memory	00000000 linkaddr_2
00003dfc l       .memory	00000000 target_2
00003e3c l       .memory	00000000 fail
00003e0c l       .memory	00000000 test_3
00003e6c l       .memory	00000000 pass
00000000 l    df *ABS*	00000000 j.o
00003eac l       .memory	00000000 .test_name
00003e98 l       .memory	00000000 .prname_next
00003eb0 l       .memory	00000000 .prname_done
00003ec8 l       .memory	00000000 test_2
00003ef8 l       .memory	00000000 fail
00003ec8 l       .memory	00000000 test_3
00003f28 l       .memory	00000000 pass
00000000 l    df *ABS*	00000000 lb.o
00003f68 l       .memory	00000000 .test_name
00003f54 l       .memory	00000000 .prname_next
00003f6c l       .memory	00000000 .prname_done
00003f78 l       .memory	00000000 test_2
0000c864 l       .memory	00000000 tdat
000041c4 l       .memory	00000000 fail
00003f90 l       .memory	00000000 test_3
00003fa8 l       .memory	00000000 test_4
00003fc0 l       .memory	00000000 test_5
00003fd8 l       .memory	00000000 test_6
0000c867 l       .memory	00000000 tdat4
00003ff0 l       .memory	00000000 test_7
00004008 l       .memory	00000000 test_8
00004020 l       .memory	00000000 test_9
00004038 l       .memory	00000000 test_10
00004054 l       .memory	00000000 test_11
00004070 l       .memory	00000000 test_12
0000c865 l       .memory	00000000 tdat2
0000409c l       .memory	00000000 test_13
0000c866 l       .memory	00000000 tdat3
000040cc l       .memory	00000000 test_14
0000c864 l       .memory	00000000 tdat1
00004100 l       .memory	00000000 test_15
00004128 l       .memory	00000000 test_16
00004154 l       .memory	00000000 test_17
00004184 l       .memory	00000000 test_18
000041a0 l       .memory	00000000 test_19
000041f4 l       .memory	00000000 pass
00000000 l    df *ABS*	00000000 lbu.o
00004234 l       .memory	00000000 .test_name
00004220 l       .memory	00000000 .prname_next
00004238 l       .memory	00000000 .prname_done
00004244 l       .memory	00000000 test_2
0000c890 l       .memory	00000000 tdat
00004490 l       .memory	00000000 fail
0000425c l       .memory	00000000 test_3
00004274 l       .memory	00000000 test_4
0000428c l       .memory	00000000 test_5
000042a4 l       .memory	00000000 test_6
0000c893 l       .memory	00000000 tdat4
000042bc l       .memory	00000000 test_7
000042d4 l       .memory	00000000 test_8
000042ec l       .memory	00000000 test_9
00004304 l       .memory	00000000 test_10
00004320 l       .memory	00000000 test_11
0000433c l       .memory	00000000 test_12
0000c891 l       .memory	00000000 tdat2
00004368 l       .memory	00000000 test_13
0000c892 l       .memory	00000000 tdat3
00004398 l       .memory	00000000 test_14
0000c890 l       .memory	00000000 tdat1
000043cc l       .memory	00000000 test_15
000043f4 l       .memory	00000000 test_16
00004420 l       .memory	00000000 test_17
00004450 l       .memory	00000000 test_18
0000446c l       .memory	00000000 test_19
000044c0 l       .memory	00000000 pass
00000000 l    df *ABS*	00000000 lh.o
00004500 l       .memory	00000000 .test_name
000044ec l       .memory	00000000 .prname_next
00004504 l       .memory	00000000 .prname_done
00004510 l       .memory	00000000 test_2
0000c8bc l       .memory	00000000 tdat
0000477c l       .memory	00000000 fail
00004528 l       .memory	00000000 test_3
00004540 l       .memory	00000000 test_4
0000455c l       .memory	00000000 test_5
00004578 l       .memory	00000000 test_6
0000c8c2 l       .memory	00000000 tdat4
00004590 l       .memory	00000000 test_7
000045a8 l       .memory	00000000 test_8
000045c4 l       .memory	00000000 test_9
000045e0 l       .memory	00000000 test_10
000045fc l       .memory	00000000 test_11
00004618 l       .memory	00000000 test_12
0000c8be l       .memory	00000000 tdat2
00004648 l       .memory	00000000 test_13
0000c8c0 l       .memory	00000000 tdat3
0000467c l       .memory	00000000 test_14
0000c8bc l       .memory	00000000 tdat1
000046b0 l       .memory	00000000 test_15
000046dc l       .memory	00000000 test_16
0000470c l       .memory	00000000 test_17
0000473c l       .memory	00000000 test_18
00004758 l       .memory	00000000 test_19
000047ac l       .memory	00000000 pass
00000000 l    df *ABS*	00000000 lhu.o
000047ec l       .memory	00000000 .test_name
000047d8 l       .memory	00000000 .prname_next
000047f0 l       .memory	00000000 .prname_done
000047fc l       .memory	00000000 test_2
0000c8ec l       .memory	00000000 tdat
00004a7c l       .memory	00000000 fail
00004814 l       .memory	00000000 test_3
00004830 l       .memory	00000000 test_4
0000484c l       .memory	00000000 test_5
00004868 l       .memory	00000000 test_6
0000c8f2 l       .memory	00000000 tdat4
00004880 l       .memory	00000000 test_7
0000489c l       .memory	00000000 test_8
000048b8 l       .memory	00000000 test_9
000048d4 l       .memory	00000000 test_10
000048f0 l       .memory	00000000 test_11
00004910 l       .memory	00000000 test_12
0000c8ee l       .memory	00000000 tdat2
00004940 l       .memory	00000000 test_13
0000c8f0 l       .memory	00000000 tdat3
00004974 l       .memory	00000000 test_14
0000c8ec l       .memory	00000000 tdat1
000049ac l       .memory	00000000 test_15
000049d8 l       .memory	00000000 test_16
00004a08 l       .memory	00000000 test_17
00004a3c l       .memory	00000000 test_18
00004a58 l       .memory	00000000 test_19
00004aac l       .memory	00000000 pass
00000000 l    df *ABS*	00000000 lui.o
00004aec l       .memory	00000000 .test_name
00004ad8 l       .memory	00000000 .prname_next
00004af0 l       .memory	00000000 .prname_done
00004afc l       .memory	00000000 test_2
00004b5c l       .memory	00000000 fail
00004b0c l       .memory	00000000 test_3
00004b20 l       .memory	00000000 test_4
00004b34 l       .memory	00000000 test_5
00004b48 l       .memory	00000000 test_6
00004b8c l       .memory	00000000 pass
00000000 l    df *ABS*	00000000 lw.o
00004bcc l       .memory	00000000 .test_name
00004bb8 l       .memory	00000000 .prname_next
00004bd0 l       .memory	00000000 .prname_done
00004bdc l       .memory	00000000 test_2
0000c944 l       .memory	00000000 tdat
00004e68 l       .memory	00000000 fail
00004bf8 l       .memory	00000000 test_3
00004c14 l       .memory	00000000 test_4
00004c30 l       .memory	00000000 test_5
00004c4c l       .memory	00000000 test_6
0000c950 l       .memory	00000000 tdat4
00004c68 l       .memory	00000000 test_7
00004c84 l       .memory	00000000 test_8
00004ca0 l       .memory	00000000 test_9
00004cbc l       .memory	00000000 test_10
00004cdc l       .memory	00000000 test_11
00004cfc l       .memory	00000000 test_12
0000c948 l       .memory	00000000 tdat2
00004d2c l       .memory	00000000 test_13
0000c94c l       .memory	00000000 tdat3
00004d60 l       .memory	00000000 test_14
0000c944 l       .memory	00000000 tdat1
00004d98 l       .memory	00000000 test_15
00004dc4 l       .memory	00000000 test_16
00004df4 l       .memory	00000000 test_17
00004e28 l       .memory	00000000 test_18
00004e44 l       .memory	00000000 test_19
00004e98 l       .memory	00000000 pass
00000000 l    df *ABS*	00000000 mulh.o
00004ed8 l       .memory	00000000 .test_name
00004ec4 l       .memory	00000000 .prname_next
00004ee0 l       .memory	00000000 .prname_done
00004eec l       .memory	00000000 test_2
000053b4 l       .memory	00000000 fail
00004f04 l       .memory	00000000 test_3
00004f1c l       .memory	00000000 test_4
00004f34 l       .memory	00000000 test_5
00004f4c l       .memory	00000000 test_6
00004f64 l       .memory	00000000 test_7
00004f7c l       .memory	00000000 test_30
00004fa0 l       .memory	00000000 test_31
00004fc4 l       .memory	00000000 test_32
00004fdc l       .memory	00000000 test_33
00004ff4 l       .memory	00000000 test_34
0000500c l       .memory	00000000 test_35
00005024 l       .memory	00000000 test_8
00005040 l       .memory	00000000 test_9
0000505c l       .memory	00000000 test_10
00005074 l       .memory	00000000 test_11
000050a4 l       .memory	00000000 test_12
000050d8 l       .memory	00000000 test_13
00005110 l       .memory	00000000 test_14
0000513c l       .memory	00000000 test_15
0000516c l       .memory	00000000 test_16
000051a0 l       .memory	00000000 test_17
000051d0 l       .memory	00000000 test_18
00005204 l       .memory	00000000 test_19
00005238 l       .memory	00000000 test_20
00005264 l       .memory	00000000 test_21
00005294 l       .memory	00000000 test_22
000052c8 l       .memory	00000000 test_23
000052f8 l       .memory	00000000 test_24
0000532c l       .memory	00000000 test_25
00005360 l       .memory	00000000 test_26
00005374 l       .memory	00000000 test_27
00005388 l       .memory	00000000 test_28
00005398 l       .memory	00000000 test_29
000053e4 l       .memory	00000000 pass
00000000 l    df *ABS*	00000000 mulhsu.o
00005424 l       .memory	00000000 .test_name
00005410 l       .memory	00000000 .prname_next
0000542c l       .memory	00000000 .prname_done
00005438 l       .memory	00000000 test_2
00005900 l       .memory	00000000 fail
00005450 l       .memory	00000000 test_3
00005468 l       .memory	00000000 test_4
00005480 l       .memory	00000000 test_5
00005498 l       .memory	00000000 test_6
000054b0 l       .memory	00000000 test_7
000054c8 l       .memory	00000000 test_30
000054ec l       .memory	00000000 test_31
00005510 l       .memory	00000000 test_32
00005528 l       .memory	00000000 test_33
00005540 l       .memory	00000000 test_34
00005558 l       .memory	00000000 test_35
00005570 l       .memory	00000000 test_8
0000558c l       .memory	00000000 test_9
000055a8 l       .memory	00000000 test_10
000055c0 l       .memory	00000000 test_11
000055f0 l       .memory	00000000 test_12
00005624 l       .memory	00000000 test_13
0000565c l       .memory	00000000 test_14
00005688 l       .memory	00000000 test_15
000056b8 l       .memory	00000000 test_16
000056ec l       .memory	00000000 test_17
0000571c l       .memory	00000000 test_18
00005750 l       .memory	00000000 test_19
00005784 l       .memory	00000000 test_20
000057b0 l       .memory	00000000 test_21
000057e0 l       .memory	00000000 test_22
00005814 l       .memory	00000000 test_23
00005844 l       .memory	00000000 test_24
00005878 l       .memory	00000000 test_25
000058ac l       .memory	00000000 test_26
000058c0 l       .memory	00000000 test_27
000058d4 l       .memory	00000000 test_28
000058e4 l       .memory	00000000 test_29
00005930 l       .memory	00000000 pass
00000000 l    df *ABS*	00000000 mulhu.o
00005970 l       .memory	00000000 .test_name
0000595c l       .memory	00000000 .prname_next
00005978 l       .memory	00000000 .prname_done
00005984 l       .memory	00000000 test_2
00005e4c l       .memory	00000000 fail
0000599c l       .memory	00000000 test_3
000059b4 l       .memory	00000000 test_4
000059cc l       .memory	00000000 test_5
000059e4 l       .memory	00000000 test_6
000059fc l       .memory	00000000 test_7
00005a14 l       .memory	00000000 test_30
00005a38 l       .memory	00000000 test_31
00005a5c l       .memory	00000000 test_32
00005a74 l       .memory	00000000 test_33
00005a8c l       .memory	00000000 test_34
00005aa4 l       .memory	00000000 test_35
00005abc l       .memory	00000000 test_8
00005ad8 l       .memory	00000000 test_9
00005af4 l       .memory	00000000 test_10
00005b0c l       .memory	00000000 test_11
00005b3c l       .memory	00000000 test_12
00005b70 l       .memory	00000000 test_13
00005ba8 l       .memory	00000000 test_14
00005bd4 l       .memory	00000000 test_15
00005c04 l       .memory	00000000 test_16
00005c38 l       .memory	00000000 test_17
00005c68 l       .memory	00000000 test_18
00005c9c l       .memory	00000000 test_19
00005cd0 l       .memory	00000000 test_20
00005cfc l       .memory	00000000 test_21
00005d2c l       .memory	00000000 test_22
00005d60 l       .memory	00000000 test_23
00005d90 l       .memory	00000000 test_24
00005dc4 l       .memory	00000000 test_25
00005df8 l       .memory	00000000 test_26
00005e0c l       .memory	00000000 test_27
00005e20 l       .memory	00000000 test_28
00005e30 l       .memory	00000000 test_29
00005e7c l       .memory	00000000 pass
00000000 l    df *ABS*	00000000 mul.o
00005ebc l       .memory	00000000 .test_name
00005ea8 l       .memory	00000000 .prname_next
00005ec0 l       .memory	00000000 .prname_done
00005ecc l       .memory	00000000 test_32
00006394 l       .memory	00000000 fail
00005ef0 l       .memory	00000000 test_33
00005f14 l       .memory	00000000 test_2
00005f2c l       .memory	00000000 test_3
00005f44 l       .memory	00000000 test_4
00005f5c l       .memory	00000000 test_5
00005f74 l       .memory	00000000 test_6
00005f8c l       .memory	00000000 test_7
00005fa4 l       .memory	00000000 test_30
00005fc8 l       .memory	00000000 test_31
00005fec l       .memory	00000000 test_34
00006004 l       .memory	00000000 test_35
0000601c l       .memory	00000000 test_36
00006034 l       .memory	00000000 test_37
0000604c l       .memory	00000000 test_8
00006064 l       .memory	00000000 test_9
0000607c l       .memory	00000000 test_10
00006090 l       .memory	00000000 test_11
000060bc l       .memory	00000000 test_12
000060ec l       .memory	00000000 test_13
00006120 l       .memory	00000000 test_14
00006148 l       .memory	00000000 test_15
00006174 l       .memory	00000000 test_16
000061a4 l       .memory	00000000 test_17
000061d0 l       .memory	00000000 test_18
00006200 l       .memory	00000000 test_19
00006230 l       .memory	00000000 test_20
00006258 l       .memory	00000000 test_21
00006284 l       .memory	00000000 test_22
000062b4 l       .memory	00000000 test_23
000062e0 l       .memory	00000000 test_24
00006310 l       .memory	00000000 test_25
00006340 l       .memory	00000000 test_26
00006354 l       .memory	00000000 test_27
00006368 l       .memory	00000000 test_28
00006378 l       .memory	00000000 test_29
000063c4 l       .memory	00000000 pass
00000000 l    df *ABS*	00000000 ori.o
00006404 l       .memory	00000000 .test_name
000063f0 l       .memory	00000000 .prname_next
00006408 l       .memory	00000000 .prname_done
00006414 l       .memory	00000000 test_2
000065f0 l       .memory	00000000 fail
0000642c l       .memory	00000000 test_3
00006448 l       .memory	00000000 test_4
00006464 l       .memory	00000000 test_5
00006480 l       .memory	00000000 test_6
0000649c l       .memory	00000000 test_7
000064cc l       .memory	00000000 test_8
00006500 l       .memory	00000000 test_9
00006538 l       .memory	00000000 test_10
00006564 l       .memory	00000000 test_11
00006590 l       .memory	00000000 test_12
000065c4 l       .memory	00000000 test_13
000065d4 l       .memory	00000000 test_14
00006620 l       .memory	00000000 pass
00000000 l    df *ABS*	00000000 or.o
00006660 l       .memory	00000000 .test_name
0000664c l       .memory	00000000 .prname_next
00006664 l       .memory	00000000 .prname_done
00006670 l       .memory	00000000 test_2
00006b34 l       .memory	00000000 fail
00006694 l       .memory	00000000 test_3
000066b8 l       .memory	00000000 test_4
000066dc l       .memory	00000000 test_5
00006700 l       .memory	00000000 test_6
00006724 l       .memory	00000000 test_7
00006748 l       .memory	00000000 test_8
00006764 l       .memory	00000000 test_9
0000679c l       .memory	00000000 test_10
000067d8 l       .memory	00000000 test_11
00006818 l       .memory	00000000 test_12
0000684c l       .memory	00000000 test_13
00006884 l       .memory	00000000 test_14
000068c0 l       .memory	00000000 test_15
000068f8 l       .memory	00000000 test_16
00006934 l       .memory	00000000 test_17
00006970 l       .memory	00000000 test_18
000069a4 l       .memory	00000000 test_19
000069dc l       .memory	00000000 test_20
00006a18 l       .memory	00000000 test_21
00006a50 l       .memory	00000000 test_22
00006a8c l       .memory	00000000 test_23
00006ac8 l       .memory	00000000 test_24
00006ae4 l       .memory	00000000 test_25
00006b00 l       .memory	00000000 test_26
00006b10 l       .memory	00000000 test_27
00006b64 l       .memory	00000000 pass
00000000 l    df *ABS*	00000000 rem.o
00006ba4 l       .memory	00000000 .test_name
00006b90 l       .memory	00000000 .prname_next
00006ba8 l       .memory	00000000 .prname_done
00006bb4 l       .memory	00000000 test_2
00006c90 l       .memory	00000000 fail
00006bcc l       .memory	00000000 test_3
00006be4 l       .memory	00000000 test_4
00006bfc l       .memory	00000000 test_5
00006c14 l       .memory	00000000 test_6
00006c2c l       .memory	00000000 test_7
00006c44 l       .memory	00000000 test_8
00006c5c l       .memory	00000000 test_9
00006c74 l       .memory	00000000 test_10
00006cc0 l       .memory	00000000 pass
00000000 l    df *ABS*	00000000 remu.o
00006d00 l       .memory	00000000 .test_name
00006cec l       .memory	00000000 .prname_next
00006d08 l       .memory	00000000 .prname_done
00006d14 l       .memory	00000000 test_2
00006df0 l       .memory	00000000 fail
00006d2c l       .memory	00000000 test_3
00006d44 l       .memory	00000000 test_4
00006d5c l       .memory	00000000 test_5
00006d74 l       .memory	00000000 test_6
00006d8c l       .memory	00000000 test_7
00006da4 l       .memory	00000000 test_8
00006dbc l       .memory	00000000 test_9
00006dd4 l       .memory	00000000 test_10
00006e20 l       .memory	00000000 pass
00000000 l    df *ABS*	00000000 sb.o
00006e60 l       .memory	00000000 .test_name
00006e4c l       .memory	00000000 .prname_next
00006e64 l       .memory	00000000 .prname_done
00006e70 l       .memory	00000000 test_2
0000cabc l       .memory	00000000 tdat
00007264 l       .memory	00000000 fail
00006e90 l       .memory	00000000 test_3
00006eb0 l       .memory	00000000 test_4
00006ed8 l       .memory	00000000 test_5
00006ef8 l       .memory	00000000 test_6
0000cac3 l       .memory	00000000 tdat8
00006f18 l       .memory	00000000 test_7
00006f38 l       .memory	00000000 test_8
00006f58 l       .memory	00000000 test_9
00006f78 l       .memory	00000000 test_10
0000cac4 l       .memory	00000000 tdat9
00006fa0 l       .memory	00000000 test_11
0000cac5 l       .memory	00000000 tdat10
00006fd0 l       .memory	00000000 test_12
00007000 l       .memory	00000000 test_13
00007034 l       .memory	00000000 test_14
0000706c l       .memory	00000000 test_15
000070a0 l       .memory	00000000 test_16
000070d8 l       .memory	00000000 test_17
00007110 l       .memory	00000000 test_18
00007140 l       .memory	00000000 test_19
00007174 l       .memory	00000000 test_20
000071ac l       .memory	00000000 test_21
000071e0 l       .memory	00000000 test_22
00007218 l       .memory	00000000 test_23
00007294 l       .memory	00000000 pass
0000cabc l       .memory	00000000 tdat1
0000cabd l       .memory	00000000 tdat2
0000cabe l       .memory	00000000 tdat3
0000cabf l       .memory	00000000 tdat4
0000cac0 l       .memory	00000000 tdat5
0000cac1 l       .memory	00000000 tdat6
0000cac2 l       .memory	00000000 tdat7
00000000 l    df *ABS*	00000000 sh.o
000072d4 l       .memory	00000000 .test_name
000072c0 l       .memory	00000000 .prname_next
000072d8 l       .memory	00000000 .prname_done
000072e4 l       .memory	00000000 test_2
0000caf0 l       .memory	00000000 tdat
0000775c l       .memory	00000000 fail
00007304 l       .memory	00000000 test_3
0000732c l       .memory	00000000 test_4
00007354 l       .memory	00000000 test_5
0000737c l       .memory	00000000 test_6
0000cafe l       .memory	00000000 tdat8
0000739c l       .memory	00000000 test_7
000073c4 l       .memory	00000000 test_8
000073ec l       .memory	00000000 test_9
00007414 l       .memory	00000000 test_10
0000cb00 l       .memory	00000000 tdat9
00007440 l       .memory	00000000 test_11
0000cb02 l       .memory	00000000 tdat10
00007474 l       .memory	00000000 test_12
000074ac l       .memory	00000000 test_13
000074e8 l       .memory	00000000 test_14
00007528 l       .memory	00000000 test_15
00007564 l       .memory	00000000 test_16
000075a4 l       .memory	00000000 test_17
000075e4 l       .memory	00000000 test_18
0000761c l       .memory	00000000 test_19
00007658 l       .memory	00000000 test_20
00007698 l       .memory	00000000 test_21
000076cc l       .memory	00000000 test_22
00007704 l       .memory	00000000 test_23
0000778c l       .memory	00000000 pass
0000caf0 l       .memory	00000000 tdat1
0000caf2 l       .memory	00000000 tdat2
0000caf4 l       .memory	00000000 tdat3
0000caf6 l       .memory	00000000 tdat4
0000caf8 l       .memory	00000000 tdat5
0000cafa l       .memory	00000000 tdat6
0000cafc l       .memory	00000000 tdat7
00000000 l    df *ABS*	00000000 simple.o
000077cc l       .memory	00000000 .test_name
000077b8 l       .memory	00000000 .prname_next
000077d4 l       .memory	00000000 .prname_done
00000000 l    df *ABS*	00000000 slli.o
00007820 l       .memory	00000000 .test_name
0000780c l       .memory	00000000 .prname_next
00007828 l       .memory	00000000 .prname_done
00007834 l       .memory	00000000 test_2
00007ab8 l       .memory	00000000 fail
00007848 l       .memory	00000000 test_3
0000785c l       .memory	00000000 test_4
00007870 l       .memory	00000000 test_5
00007884 l       .memory	00000000 test_6
00007898 l       .memory	00000000 test_7
000078ac l       .memory	00000000 test_8
000078c0 l       .memory	00000000 test_9
000078d4 l       .memory	00000000 test_10
000078e8 l       .memory	00000000 test_11
000078fc l       .memory	00000000 test_12
00007918 l       .memory	00000000 test_13
00007934 l       .memory	00000000 test_14
00007950 l       .memory	00000000 test_15
00007968 l       .memory	00000000 test_16
00007980 l       .memory	00000000 test_17
00007994 l       .memory	00000000 test_18
000079bc l       .memory	00000000 test_19
000079e8 l       .memory	00000000 test_20
00007a18 l       .memory	00000000 test_21
00007a3c l       .memory	00000000 test_22
00007a64 l       .memory	00000000 test_23
00007a90 l       .memory	00000000 test_24
00007aa0 l       .memory	00000000 test_25
00007ae8 l       .memory	00000000 pass
00000000 l    df *ABS*	00000000 sll.o
00007b28 l       .memory	00000000 .test_name
00007b14 l       .memory	00000000 .prname_next
00007b2c l       .memory	00000000 .prname_done
00007b38 l       .memory	00000000 test_2
000080a4 l       .memory	00000000 fail
00007b50 l       .memory	00000000 test_3
00007b68 l       .memory	00000000 test_4
00007b80 l       .memory	00000000 test_5
00007b98 l       .memory	00000000 test_6
00007bb0 l       .memory	00000000 test_7
00007bc8 l       .memory	00000000 test_8
00007be0 l       .memory	00000000 test_9
00007bf8 l       .memory	00000000 test_10
00007c10 l       .memory	00000000 test_11
00007c28 l       .memory	00000000 test_12
00007c48 l       .memory	00000000 test_13
00007c68 l       .memory	00000000 test_14
00007c88 l       .memory	00000000 test_15
00007ca4 l       .memory	00000000 test_16
00007cc0 l       .memory	00000000 test_17
00007ce0 l       .memory	00000000 test_18
00007d00 l       .memory	00000000 test_19
00007d20 l       .memory	00000000 test_20
00007d3c l       .memory	00000000 test_21
00007d58 l       .memory	00000000 test_22
00007d70 l       .memory	00000000 test_23
00007d88 l       .memory	00000000 test_24
00007d9c l       .memory	00000000 test_25
00007dc8 l       .memory	00000000 test_26
00007df8 l       .memory	00000000 test_27
00007e2c l       .memory	00000000 test_28
00007e54 l       .memory	00000000 test_29
00007e80 l       .memory	00000000 test_30
00007eb0 l       .memory	00000000 test_31
00007edc l       .memory	00000000 test_32
00007f0c l       .memory	00000000 test_33
00007f3c l       .memory	00000000 test_34
00007f64 l       .memory	00000000 test_35
00007f90 l       .memory	00000000 test_36
00007fc0 l       .memory	00000000 test_37
00007fec l       .memory	00000000 test_38
0000801c l       .memory	00000000 test_39
0000804c l       .memory	00000000 test_40
00008060 l       .memory	00000000 test_41
00008074 l       .memory	00000000 test_42
00008084 l       .memory	00000000 test_43
000080d4 l       .memory	00000000 pass
00000000 l    df *ABS*	00000000 slti.o
00008114 l       .memory	00000000 .test_name
00008100 l       .memory	00000000 .prname_next
0000811c l       .memory	00000000 .prname_done
00008128 l       .memory	00000000 test_2
0000839c l       .memory	00000000 fail
0000813c l       .memory	00000000 test_3
00008150 l       .memory	00000000 test_4
00008164 l       .memory	00000000 test_5
00008178 l       .memory	00000000 test_6
0000818c l       .memory	00000000 test_7
000081a0 l       .memory	00000000 test_8
000081b4 l       .memory	00000000 test_9
000081c8 l       .memory	00000000 test_10
000081e0 l       .memory	00000000 test_11
000081f8 l       .memory	00000000 test_12
0000820c l       .memory	00000000 test_13
00008224 l       .memory	00000000 test_14
00008238 l       .memory	00000000 test_15
0000824c l       .memory	00000000 test_16
00008260 l       .memory	00000000 test_17
00008274 l       .memory	00000000 test_18
0000829c l       .memory	00000000 test_19
000082c8 l       .memory	00000000 test_20
000082f8 l       .memory	00000000 test_21
0000831c l       .memory	00000000 test_22
00008344 l       .memory	00000000 test_23
00008370 l       .memory	00000000 test_24
00008380 l       .memory	00000000 test_25
000083cc l       .memory	00000000 pass
00000000 l    df *ABS*	00000000 slt.o
0000840c l       .memory	00000000 .test_name
000083f8 l       .memory	00000000 .prname_next
00008410 l       .memory	00000000 .prname_done
0000841c l       .memory	00000000 test_2
000088e4 l       .memory	00000000 fail
00008434 l       .memory	00000000 test_3
0000844c l       .memory	00000000 test_4
00008464 l       .memory	00000000 test_5
0000847c l       .memory	00000000 test_6
00008494 l       .memory	00000000 test_7
000084ac l       .memory	00000000 test_8
000084c4 l       .memory	00000000 test_9
000084e0 l       .memory	00000000 test_10
000084fc l       .memory	00000000 test_11
0000851c l       .memory	00000000 test_12
00008538 l       .memory	00000000 test_13
00008554 l       .memory	00000000 test_14
0000856c l       .memory	00000000 test_15
00008584 l       .memory	00000000 test_16
0000859c l       .memory	00000000 test_17
000085b4 l       .memory	00000000 test_18
000085cc l       .memory	00000000 test_19
000085e0 l       .memory	00000000 test_20
0000860c l       .memory	00000000 test_21
0000863c l       .memory	00000000 test_22
00008670 l       .memory	00000000 test_23
00008698 l       .memory	00000000 test_24
000086c4 l       .memory	00000000 test_25
000086f4 l       .memory	00000000 test_26
00008720 l       .memory	00000000 test_27
00008750 l       .memory	00000000 test_28
00008780 l       .memory	00000000 test_29
000087a8 l       .memory	00000000 test_30
000087d4 l       .memory	00000000 test_31
00008804 l       .memory	00000000 test_32
00008830 l       .memory	00000000 test_33
00008860 l       .memory	00000000 test_34
00008890 l       .memory	00000000 test_35
000088a4 l       .memory	00000000 test_36
000088b8 l       .memory	00000000 test_37
000088c8 l       .memory	00000000 test_38
00008914 l       .memory	00000000 pass
00000000 l    df *ABS*	00000000 srai.o
00008954 l       .memory	00000000 .test_name
00008940 l       .memory	00000000 .prname_next
0000895c l       .memory	00000000 .prname_done
00008968 l       .memory	00000000 test_2
00008c20 l       .memory	00000000 fail
0000897c l       .memory	00000000 test_3
00008990 l       .memory	00000000 test_4
000089a4 l       .memory	00000000 test_5
000089b8 l       .memory	00000000 test_6
000089d0 l       .memory	00000000 test_7
000089ec l       .memory	00000000 test_8
00008a08 l       .memory	00000000 test_9
00008a24 l       .memory	00000000 test_10
00008a40 l       .memory	00000000 test_11
00008a58 l       .memory	00000000 test_12
00008a74 l       .memory	00000000 test_13
00008a90 l       .memory	00000000 test_14
00008aac l       .memory	00000000 test_15
00008ac8 l       .memory	00000000 test_16
00008ae0 l       .memory	00000000 test_17
00008af4 l       .memory	00000000 test_18
00008b1c l       .memory	00000000 test_19
00008b48 l       .memory	00000000 test_20
00008b7c l       .memory	00000000 test_21
00008ba0 l       .memory	00000000 test_22
00008bc8 l       .memory	00000000 test_23
00008bf8 l       .memory	00000000 test_24
00008c08 l       .memory	00000000 test_25
00008c50 l       .memory	00000000 pass
00000000 l    df *ABS*	00000000 sra.o
00008c90 l       .memory	00000000 .test_name
00008c7c l       .memory	00000000 .prname_next
00008c94 l       .memory	00000000 .prname_done
00008ca0 l       .memory	00000000 test_2
0000923c l       .memory	00000000 fail
00008cb8 l       .memory	00000000 test_3
00008cd0 l       .memory	00000000 test_4
00008ce8 l       .memory	00000000 test_5
00008d00 l       .memory	00000000 test_6
00008d1c l       .memory	00000000 test_7
00008d3c l       .memory	00000000 test_8
00008d5c l       .memory	00000000 test_9
00008d7c l       .memory	00000000 test_10
00008d9c l       .memory	00000000 test_11
00008db8 l       .memory	00000000 test_12
00008dd8 l       .memory	00000000 test_13
00008df8 l       .memory	00000000 test_14
00008e18 l       .memory	00000000 test_15
00008e38 l       .memory	00000000 test_16
00008e54 l       .memory	00000000 test_17
00008e74 l       .memory	00000000 test_18
00008e94 l       .memory	00000000 test_19
00008eb4 l       .memory	00000000 test_20
00008ed4 l       .memory	00000000 test_21
00008ef0 l       .memory	00000000 test_22
00008f08 l       .memory	00000000 test_23
00008f20 l       .memory	00000000 test_24
00008f34 l       .memory	00000000 test_25
00008f60 l       .memory	00000000 test_26
00008f90 l       .memory	00000000 test_27
00008fc4 l       .memory	00000000 test_28
00008fec l       .memory	00000000 test_29
00009018 l       .memory	00000000 test_30
00009048 l       .memory	00000000 test_31
00009074 l       .memory	00000000 test_32
000090a4 l       .memory	00000000 test_33
000090d4 l       .memory	00000000 test_34
000090fc l       .memory	00000000 test_35
00009128 l       .memory	00000000 test_36
00009158 l       .memory	00000000 test_37
00009184 l       .memory	00000000 test_38
000091b4 l       .memory	00000000 test_39
000091e4 l       .memory	00000000 test_40
000091f8 l       .memory	00000000 test_41
0000920c l       .memory	00000000 test_42
0000921c l       .memory	00000000 test_43
0000926c l       .memory	00000000 pass
00000000 l    df *ABS*	00000000 srli.o
000092ac l       .memory	00000000 .test_name
00009298 l       .memory	00000000 .prname_next
000092b4 l       .memory	00000000 .prname_done
000092c0 l       .memory	00000000 test_2
00009574 l       .memory	00000000 fail
000092d4 l       .memory	00000000 test_3
000092e8 l       .memory	00000000 test_4
00009300 l       .memory	00000000 test_5
00009318 l       .memory	00000000 test_6
00009334 l       .memory	00000000 test_7
00009348 l       .memory	00000000 test_8
00009360 l       .memory	00000000 test_9
00009378 l       .memory	00000000 test_10
00009390 l       .memory	00000000 test_11
000093a4 l       .memory	00000000 test_12
000093c0 l       .memory	00000000 test_13
000093dc l       .memory	00000000 test_14
000093f8 l       .memory	00000000 test_15
00009414 l       .memory	00000000 test_16
0000942c l       .memory	00000000 test_21
00009440 l       .memory	00000000 test_22
00009468 l       .memory	00000000 test_23
00009498 l       .memory	00000000 test_24
000094cc l       .memory	00000000 test_25
000094f0 l       .memory	00000000 test_26
0000951c l       .memory	00000000 test_27
0000954c l       .memory	00000000 test_28
0000955c l       .memory	00000000 test_29
000095a4 l       .memory	00000000 pass
00000000 l    df *ABS*	00000000 srl.o
000095e4 l       .memory	00000000 .test_name
000095d0 l       .memory	00000000 .prname_next
000095e8 l       .memory	00000000 .prname_done
000095f4 l       .memory	00000000 test_2
00009bb0 l       .memory	00000000 fail
0000960c l       .memory	00000000 test_3
00009624 l       .memory	00000000 test_4
00009640 l       .memory	00000000 test_5
0000965c l       .memory	00000000 test_6
0000967c l       .memory	00000000 test_7
00009694 l       .memory	00000000 test_8
000096b0 l       .memory	00000000 test_9
000096cc l       .memory	00000000 test_10
000096e8 l       .memory	00000000 test_11
00009700 l       .memory	00000000 test_12
00009720 l       .memory	00000000 test_13
00009740 l       .memory	00000000 test_14
00009760 l       .memory	00000000 test_15
00009780 l       .memory	00000000 test_16
0000979c l       .memory	00000000 test_17
000097bc l       .memory	00000000 test_18
000097dc l       .memory	00000000 test_19
000097fc l       .memory	00000000 test_20
0000981c l       .memory	00000000 test_21
00009838 l       .memory	00000000 test_22
00009850 l       .memory	00000000 test_23
0000986c l       .memory	00000000 test_24
00009880 l       .memory	00000000 test_25
000098ac l       .memory	00000000 test_26
000098e0 l       .memory	00000000 test_27
00009918 l       .memory	00000000 test_28
00009940 l       .memory	00000000 test_29
00009970 l       .memory	00000000 test_30
000099a4 l       .memory	00000000 test_31
000099d0 l       .memory	00000000 test_32
00009a04 l       .memory	00000000 test_33
00009a38 l       .memory	00000000 test_34
00009a60 l       .memory	00000000 test_35
00009a90 l       .memory	00000000 test_36
00009ac4 l       .memory	00000000 test_37
00009af0 l       .memory	00000000 test_38
00009b24 l       .memory	00000000 test_39
00009b58 l       .memory	00000000 test_40
00009b6c l       .memory	00000000 test_41
00009b80 l       .memory	00000000 test_42
00009b90 l       .memory	00000000 test_43
00009be0 l       .memory	00000000 pass
00000000 l    df *ABS*	00000000 sub.o
00009c20 l       .memory	00000000 .test_name
00009c0c l       .memory	00000000 .prname_next
00009c24 l       .memory	00000000 .prname_done
00009c30 l       .memory	00000000 test_2
0000a0f0 l       .memory	00000000 fail
00009c48 l       .memory	00000000 test_3
00009c60 l       .memory	00000000 test_4
00009c78 l       .memory	00000000 test_5
00009c90 l       .memory	00000000 test_6
00009ca8 l       .memory	00000000 test_7
00009cc0 l       .memory	00000000 test_8
00009ce0 l       .memory	00000000 test_9
00009d00 l       .memory	00000000 test_10
00009d20 l       .memory	00000000 test_11
00009d40 l       .memory	00000000 test_12
00009d60 l       .memory	00000000 test_13
00009d78 l       .memory	00000000 test_14
00009d90 l       .memory	00000000 test_15
00009da8 l       .memory	00000000 test_16
00009dc0 l       .memory	00000000 test_17
00009dd8 l       .memory	00000000 test_18
00009dec l       .memory	00000000 test_19
00009e18 l       .memory	00000000 test_20
00009e48 l       .memory	00000000 test_21
00009e7c l       .memory	00000000 test_22
00009ea4 l       .memory	00000000 test_23
00009ed0 l       .memory	00000000 test_24
00009f00 l       .memory	00000000 test_25
00009f2c l       .memory	00000000 test_26
00009f5c l       .memory	00000000 test_27
00009f8c l       .memory	00000000 test_28
00009fb4 l       .memory	00000000 test_29
00009fe0 l       .memory	00000000 test_30
0000a010 l       .memory	00000000 test_31
0000a03c l       .memory	00000000 test_32
0000a06c l       .memory	00000000 test_33
0000a09c l       .memory	00000000 test_34
0000a0b0 l       .memory	00000000 test_35
0000a0c4 l       .memory	00000000 test_36
0000a0d4 l       .memory	00000000 test_37
0000a120 l       .memory	00000000 pass
00000000 l    df *ABS*	00000000 sw.o
0000a160 l       .memory	00000000 .test_name
0000a14c l       .memory	00000000 .prname_next
0000a164 l       .memory	00000000 .prname_done
0000a170 l       .memory	00000000 test_2
0000ccbc l       .memory	00000000 tdat
0000a5f4 l       .memory	00000000 fail
0000a198 l       .memory	00000000 test_3
0000a1c0 l       .memory	00000000 test_4
0000a1e8 l       .memory	00000000 test_5
0000a210 l       .memory	00000000 test_6
0000ccd8 l       .memory	00000000 tdat8
0000a238 l       .memory	00000000 test_7
0000a260 l       .memory	00000000 test_8
0000a288 l       .memory	00000000 test_9
0000a2b0 l       .memory	00000000 test_10
0000ccdc l       .memory	00000000 tdat9
0000a2dc l       .memory	00000000 test_11
0000cce0 l       .memory	00000000 tdat10
0000a310 l       .memory	00000000 test_12
0000a348 l       .memory	00000000 test_13
0000a384 l       .memory	00000000 test_14
0000a3c4 l       .memory	00000000 test_15
0000a400 l       .memory	00000000 test_16
0000a440 l       .memory	00000000 test_17
0000a480 l       .memory	00000000 test_18
0000a4b8 l       .memory	00000000 test_19
0000a4f4 l       .memory	00000000 test_20
0000a534 l       .memory	00000000 test_21
0000a570 l       .memory	00000000 test_22
0000a5b0 l       .memory	00000000 test_23
0000a624 l       .memory	00000000 pass
0000ccbc l       .memory	00000000 tdat1
0000ccc0 l       .memory	00000000 tdat2
0000ccc4 l       .memory	00000000 tdat3
0000ccc8 l       .memory	00000000 tdat4
0000cccc l       .memory	00000000 tdat5
0000ccd0 l       .memory	00000000 tdat6
0000ccd4 l       .memory	00000000 tdat7
00000000 l    df *ABS*	00000000 xori.o
0000a664 l       .memory	00000000 .test_name
0000a650 l       .memory	00000000 .prname_next
0000a66c l       .memory	00000000 .prname_done
0000a678 l       .memory	00000000 test_2
0000a85c l       .memory	00000000 fail
0000a694 l       .memory	00000000 test_3
0000a6b0 l       .memory	00000000 test_4
0000a6cc l       .memory	00000000 test_5
0000a6e8 l       .memory	00000000 test_6
0000a704 l       .memory	00000000 test_7
0000a734 l       .memory	00000000 test_8
0000a768 l       .memory	00000000 test_9
0000a7a0 l       .memory	00000000 test_10
0000a7cc l       .memory	00000000 test_11
0000a7fc l       .memory	00000000 test_12
0000a830 l       .memory	00000000 test_13
0000a840 l       .memory	00000000 test_14
0000a88c l       .memory	00000000 pass
00000000 l    df *ABS*	00000000 xor.o
0000a8cc l       .memory	00000000 .test_name
0000a8b8 l       .memory	00000000 .prname_next
0000a8d0 l       .memory	00000000 .prname_done
0000a8dc l       .memory	00000000 test_2
0000ad9c l       .memory	00000000 fail
0000a900 l       .memory	00000000 test_3
0000a924 l       .memory	00000000 test_4
0000a948 l       .memory	00000000 test_5
0000a96c l       .memory	00000000 test_6
0000a990 l       .memory	00000000 test_7
0000a9b4 l       .memory	00000000 test_8
0000a9cc l       .memory	00000000 test_9
0000aa04 l       .memory	00000000 test_10
0000aa40 l       .memory	00000000 test_11
0000aa80 l       .memory	00000000 test_12
0000aab4 l       .memory	00000000 test_13
0000aaec l       .memory	00000000 test_14
0000ab28 l       .memory	00000000 test_15
0000ab60 l       .memory	00000000 test_16
0000ab9c l       .memory	00000000 test_17
0000abd8 l       .memory	00000000 test_18
0000ac0c l       .memory	00000000 test_19
0000ac44 l       .memory	00000000 test_20
0000ac80 l       .memory	00000000 test_21
0000acb8 l       .memory	00000000 test_22
0000acf4 l       .memory	00000000 test_23
0000ad30 l       .memory	00000000 test_24
0000ad4c l       .memory	00000000 test_25
0000ad68 l       .memory	00000000 test_26
0000ad78 l       .memory	00000000 test_27
0000adcc l       .memory	00000000 pass
00000000 l    df *ABS*	00000000 libgcc2.c
00000000 l    df *ABS*	00000000 libgcc2.c
00000000 l    df *ABS*	00000000 libgcc2.c
00000000 l    df *ABS*	00000000 libgcc2.c
00000000 l    df *ABS*	00000000 muldi3.o
00000000 l    df *ABS*	00000000 multi3.c
00000000 l    df *ABS*	00000000 div.o
00000000 l    df *ABS*	00000000 libgcc2.c
00000528 g       .memory	00000000 hard_rem
000004c6 g       .memory	00000000 srli_ret
000063e4 g       .memory	00000000 ori
000023f0 g       .memory	00000000 auipc
0000adec g     F .memory	00000478 .hidden __divdi3
00002f74 g       .memory	00000000 blt
000004c6 g       .memory	00000000 bgeu_ret
00001200 g     F .memory	000000c0 test_case5
0000050a g       .memory	00000000 hard_mulh
00003e8c g       .memory	00000000 j
000004c6 g       .memory	00000000 lbu_ret
000004c6 g       .memory	00000000 andi_ret
00000a66 g     F .memory	000000f4 sieve
000004c6 g       .memory	00000000 div_ret
000044e0 g       .memory	00000000 lh
000004c6 g       .memory	00000000 ori_ret
000004c6 g       .memory	00000000 mulhsu_ret
000004c6 g       .memory	00000000 blt_ret
00005404 g       .memory	00000000 mulhsu
000004c6 g       .memory	00000000 lb_ret
000004c6 g       .memory	00000000 xor_ret
000009c2 g     F .memory	00000008 hello
0000093a g     F .memory	00000012 print_str
000072b4 g       .memory	00000000 sh
0000bf60 g     F .memory	00000048 .hidden __hidden___udivsi3
00000b78 g     F .memory	000002d2 multest
0000bf60 g     F .memory	00000048 .hidden __udivsi3
000004c6 g       .memory	00000000 slt_ret
000004c6 g       .memory	00000000 lw_ret
000004c6 g       .memory	00000000 jalr_ret
0000108c g     F .memory	0000008a test_case2
000004c6 g       .memory	00000000 add_ret
00004acc g       .memory	00000000 lui
000004c6 g       .memory	00000000 xori_ret
000004c6 g       .memory	00000000 srai_ret
0000094c g     F .memory	00000050 print_dec
000004c6 g       .memory	00000000 rem_ret
0000bae4 g     F .memory	000003e4 .hidden __umoddi3
000004c6 g       .memory	00000000 simple_ret
00000510 g       .memory	00000000 hard_mulhsu
0000b6b4 g     F .memory	00000430 .hidden __udivdi3
000004c6 g       .memory	00000000 mul_ret
00007b08 g       .memory	00000000 sll
000004c6 g       .memory	00000000 slti_ret
00004214 g       .memory	00000000 lbu
00003c30 g       .memory	00000000 jalr
00000516 g       .memory	00000000 hard_mulhu
00001c70 g       .memory	00000000 andi
000004c6 g       .memory	00000000 slli_ret
000004c6 g       .memory	00000000 lhu_ret
00003db4 g       .memory	00000000 jal
000004c6 g       .memory	00000000 lui_ret
000012c0 g     F .memory	0000002c test_case6
00001710 g       .memory	00000000 add
0000138a g     F .memory	00000078 test_abc
0000bfa8 g     F .memory	00000010 .hidden __umodsi3
0000051c g       .memory	00000000 hard_div
0000362c g       .memory	00000000 bne
0000d04e g       .memory	00000000 end
000011d4 g     F .memory	0000002c test_case4
0000a8ac g       .memory	00000000 xor
000083ec g       .memory	00000000 slt
00006ce0 g       .memory	00000000 remu
000004c6 g       .memory	00000000 or_ret
000004c6 g       .memory	00000000 sw_ret
00006b84 g       .memory	00000000 rem
000004c6 g       .memory	00000000 sra_ret
000027fc g       .memory	00000000 bge
000004c6 g       .memory	00000000 beq_ret
000077ac g       .memory	00000000 simple
0000052e g       .memory	00000000 hard_remu
00004bac g       .memory	00000000 lw
00000522 g       .memory	00000000 hard_divu
0000bec8 g     F .memory	00000024 .hidden __mulsi3
0000069c g     F .memory	00000296 irq
000004c6 g       .memory	00000000 remu_ret
0000100e g     F .memory	0000007e test_case1
000004c6 g       .memory	00000000 mulh_ret
00001404 g       .memory	00000000 addi
000004c6 g       .memory	00000000 and_ret
00006e40 g       .memory	00000000 sb
00001116 g     F .memory	000000be test_case3
00005e9c g       .memory	00000000 mul
000047cc g       .memory	00000000 lhu
000004c6 g       .memory	00000000 mulhu_ret
0000928c g       .memory	00000000 srli
000004c6 g       .memory	00000000 bge_ret
000024bc g       .memory	00000000 beq
000095c4 g       .memory	00000000 srl
000004c6 g       .memory	00000000 sub_ret
0000bf58 g     F .memory	00000084 .hidden __divsi3
00008c70 g       .memory	00000000 sra
0000099c g     F .memory	00000026 print_hex
00000932 g     F .memory	00000008 print_chr
000004c6 g       .memory	00000000 auipc_ret
000080f4 g       .memory	00000000 slti
000004c6 g       .memory	00000000 sh_ret
00003acc g       .memory	00000000 divu
000004c6 g       .memory	00000000 sll_ret
0000cf24 g     O .memory	00000100 .hidden __clz_tab
0000a644 g       .memory	00000000 xori
000004c6 g       .memory	00000000 jal_ret
0000a140 g       .memory	00000000 sw
00006640 g       .memory	00000000 or
000012ec g     F .memory	0000009e test_case7
000004c6 g       .memory	00000000 j_ret
00004eb8 g       .memory	00000000 mulh
00000504 g       .memory	00000000 hard_mul
00000ede g     F .memory	00000088 stats
00001eb4 g       .memory	00000000 and
000004c6 g       .memory	00000000 lh_ret
00005950 g       .memory	00000000 mulhu
000004c6 g       .memory	00000000 bne_ret
000004c6 g       .memory	00000000 sb_ret
0000bfdc g     F .memory	00000030 .hidden __modsi3
000004c6 g       .memory	00000000 divu_ret
0000b264 g     F .memory	00000450 .hidden __moddi3
000004c6 g       .memory	00000000 bltu_ret
00007800 g       .memory	00000000 slli
000004c6 g       .memory	00000000 srl_ret
0000beec g     F .memory	0000006c .hidden __muldi3
00002b9c g       .memory	00000000 bgeu
00003970 g       .memory	00000000 div
000032b4 g       .memory	00000000 bltu
00003f48 g       .memory	00000000 lb
00009c00 g       .memory	00000000 sub
000004c6 g       .memory	00000000 addi_ret
00000f66 g     F .memory	000000a8 test_case0
00008934 g       .memory	00000000 srai



Disassembly of section .memory:

00000000 <reset_vec>:
reset_vec():
       0:	0800400b          	.insn	4, 0x0800400b
       4:	0600600b          	.insn	4, 0x0600600b
       8:	a9a5                	j	480 <irq_stack>
       a:	00000013          	nop
       e:	0001                	nop

00000010 <irq_vec>:
irq_vec():
      10:	0200a10b          	.insn	4, 0x0200a10b
      14:	0201218b          	.insn	4, 0x0201218b
      18:	20000093          	li	ra,512
      1c:	0000410b          	.insn	4, 0x410b
      20:	0020a023          	sw	sp,0(ra)
      24:	0001410b          	.insn	4, 0x0001410b
      28:	0020a223          	sw	sp,4(ra)
      2c:	0001c10b          	.insn	4, 0x0001c10b
      30:	0020a423          	sw	sp,8(ra)
      34:	0030a623          	sw	gp,12(ra)
      38:	0040a823          	sw	tp,16(ra)
      3c:	0050aa23          	sw	t0,20(ra)
      40:	0060ac23          	sw	t1,24(ra)
      44:	0070ae23          	sw	t2,28(ra)
      48:	0280a023          	sw	s0,32(ra)
      4c:	0290a223          	sw	s1,36(ra)
      50:	02a0a423          	sw	a0,40(ra)
      54:	02b0a623          	sw	a1,44(ra)
      58:	02c0a823          	sw	a2,48(ra)
      5c:	02d0aa23          	sw	a3,52(ra)
      60:	02e0ac23          	sw	a4,56(ra)
      64:	02f0ae23          	sw	a5,60(ra)
      68:	0500a023          	sw	a6,64(ra)
      6c:	0510a223          	sw	a7,68(ra)
      70:	0520a423          	sw	s2,72(ra)
      74:	0530a623          	sw	s3,76(ra)
      78:	0540a823          	sw	s4,80(ra)
      7c:	0550aa23          	sw	s5,84(ra)
      80:	0560ac23          	sw	s6,88(ra)
      84:	0570ae23          	sw	s7,92(ra)
      88:	0780a023          	sw	s8,96(ra)
      8c:	0790a223          	sw	s9,100(ra)
      90:	07a0a423          	sw	s10,104(ra)
      94:	07b0a623          	sw	s11,108(ra)
      98:	07c0a823          	sw	t3,112(ra)
      9c:	07d0aa23          	sw	t4,116(ra)
      a0:	07e0ac23          	sw	t5,120(ra)
      a4:	07f0ae23          	sw	t6,124(ra)
      a8:	48000113          	li	sp,1152
      ac:	20000513          	li	a0,512
      b0:	0000c58b          	.insn	4, 0xc58b
      b4:	5e8000ef          	jal	69c <irq>
      b8:	80aa                	mv	ra,a0
      ba:	0000a103          	lw	sp,0(ra)
      be:	0201200b          	.insn	4, 0x0201200b
      c2:	0040a103          	lw	sp,4(ra)
      c6:	0201208b          	.insn	4, 0x0201208b
      ca:	0080a103          	lw	sp,8(ra)
      ce:	0201210b          	.insn	4, 0x0201210b
      d2:	00c0a183          	lw	gp,12(ra)
      d6:	0100a203          	lw	tp,16(ra)
      da:	0140a283          	lw	t0,20(ra)
      de:	0180a303          	lw	t1,24(ra)
      e2:	01c0a383          	lw	t2,28(ra)
      e6:	0200a403          	lw	s0,32(ra)
      ea:	0240a483          	lw	s1,36(ra)
      ee:	0280a503          	lw	a0,40(ra)
      f2:	02c0a583          	lw	a1,44(ra)
      f6:	0300a603          	lw	a2,48(ra)
      fa:	0340a683          	lw	a3,52(ra)
      fe:	0380a703          	lw	a4,56(ra)
     102:	03c0a783          	lw	a5,60(ra)
     106:	0400a803          	lw	a6,64(ra)
     10a:	0440a883          	lw	a7,68(ra)
     10e:	0480a903          	lw	s2,72(ra)
     112:	04c0a983          	lw	s3,76(ra)
     116:	0500aa03          	lw	s4,80(ra)
     11a:	0540aa83          	lw	s5,84(ra)
     11e:	0580ab03          	lw	s6,88(ra)
     122:	05c0ab83          	lw	s7,92(ra)
     126:	0600ac03          	lw	s8,96(ra)
     12a:	0640ac83          	lw	s9,100(ra)
     12e:	0680ad03          	lw	s10,104(ra)
     132:	06c0ad83          	lw	s11,108(ra)
     136:	0700ae03          	lw	t3,112(ra)
     13a:	0740ae83          	lw	t4,116(ra)
     13e:	0780af03          	lw	t5,120(ra)
     142:	07c0af83          	lw	t6,124(ra)
     146:	0000c08b          	.insn	4, 0xc08b
     14a:	0001410b          	.insn	4, 0x0001410b
     14e:	0400000b          	.insn	4, 0x0400000b
     152:	00000013          	nop
     156:	00000013          	nop
     15a:	00000013          	nop
     15e:	00000013          	nop
     162:	00000013          	nop
     166:	00000013          	nop
     16a:	00000013          	nop
     16e:	00000013          	nop
     172:	00000013          	nop
     176:	00000013          	nop
     17a:	00000013          	nop
     17e:	00000013          	nop
     182:	00000013          	nop
     186:	00000013          	nop
     18a:	00000013          	nop
     18e:	00000013          	nop
     192:	00000013          	nop
     196:	00000013          	nop
     19a:	00000013          	nop
     19e:	00000013          	nop
     1a2:	00000013          	nop
     1a6:	00000013          	nop
     1aa:	00000013          	nop
     1ae:	00000013          	nop
     1b2:	00000013          	nop
     1b6:	00000013          	nop
     1ba:	00000013          	nop
     1be:	00000013          	nop
     1c2:	00000013          	nop
     1c6:	00000013          	nop
     1ca:	00000013          	nop
     1ce:	00000013          	nop
     1d2:	00000013          	nop
     1d6:	00000013          	nop
     1da:	00000013          	nop
     1de:	00000013          	nop
     1e2:	00000013          	nop
     1e6:	00000013          	nop
     1ea:	00000013          	nop
     1ee:	00000013          	nop
     1f2:	00000013          	nop
     1f6:	00000013          	nop
     1fa:	00000013          	nop
     1fe:	0001                	nop

00000200 <irq_regs>:
	...

00000480 <irq_stack>:
start():
     480:	4081                	li	ra,0
     482:	4101                	li	sp,0
     484:	4181                	li	gp,0
     486:	4201                	li	tp,0
     488:	4281                	li	t0,0
     48a:	4301                	li	t1,0
     48c:	4381                	li	t2,0
     48e:	4401                	li	s0,0
     490:	4481                	li	s1,0
     492:	4501                	li	a0,0
     494:	4581                	li	a1,0
     496:	4601                	li	a2,0
     498:	4681                	li	a3,0
     49a:	4701                	li	a4,0
     49c:	4781                	li	a5,0
     49e:	4801                	li	a6,0
     4a0:	4881                	li	a7,0
     4a2:	4901                	li	s2,0
     4a4:	4981                	li	s3,0
     4a6:	4a01                	li	s4,0
     4a8:	4a81                	li	s5,0
     4aa:	4b01                	li	s6,0
     4ac:	4b81                	li	s7,0
     4ae:	4c01                	li	s8,0
     4b0:	4c81                	li	s9,0
     4b2:	4d01                	li	s10,0
     4b4:	4d81                	li	s11,0
     4b6:	4e01                	li	t3,0
     4b8:	4e81                	li	t4,0
     4ba:	4f01                	li	t5,0
     4bc:	4f81                	li	t6,0
     4be:	00020137          	lui	sp,0x20
     4c2:	6c9000ef          	jal	138a <test_abc>

000004c6 <add_ret>:
srli_ret():
     4c6:	00020137          	lui	sp,0x20
     4ca:	deadc1b7          	lui	gp,0xdeadc
     4ce:	eef18193          	addi	gp,gp,-273 # deadbeef <end+0xdeaceea1>
     4d2:	820e                	mv	tp,gp
     4d4:	10000537          	lui	a0,0x10000
     4d8:	04400593          	li	a1,68
     4dc:	04f00613          	li	a2,79
     4e0:	04e00693          	li	a3,78
     4e4:	04500713          	li	a4,69
     4e8:	47a9                	li	a5,10
     4ea:	c10c                	sw	a1,0(a0)
     4ec:	c110                	sw	a2,0(a0)
     4ee:	c114                	sw	a3,0(a0)
     4f0:	c118                	sw	a4,0(a0)
     4f2:	c11c                	sw	a5,0(a0)
     4f4:	20000537          	lui	a0,0x20000
     4f8:	075bd5b7          	lui	a1,0x75bd
     4fc:	d1558593          	addi	a1,a1,-747 # 75bcd15 <end+0x75afcc7>
     500:	c10c                	sw	a1,0(a0)
     502:	9002                	ebreak

00000504 <hard_mul>:
hard_mul():
     504:	02b50533          	mul	a0,a0,a1
     508:	8082                	ret

0000050a <hard_mulh>:
hard_mulh():
     50a:	02b51533          	mulh	a0,a0,a1
     50e:	8082                	ret

00000510 <hard_mulhsu>:
hard_mulhsu():
     510:	02b52533          	mulhsu	a0,a0,a1
     514:	8082                	ret

00000516 <hard_mulhu>:
hard_mulhu():
     516:	02b53533          	mulhu	a0,a0,a1
     51a:	8082                	ret

0000051c <hard_div>:
hard_div():
     51c:	02b54533          	div	a0,a0,a1
     520:	8082                	ret

00000522 <hard_divu>:
hard_divu():
     522:	02b55533          	divu	a0,a0,a1
     526:	8082                	ret

00000528 <hard_rem>:
hard_rem():
     528:	02b56533          	rem	a0,a0,a1
     52c:	8082                	ret

0000052e <hard_remu>:
hard_remu():
     52e:	02b57533          	remu	a0,a0,a1
     532:	8082                	ret
	...

0000069c <irq>:
irq():
     69c:	7139                	addi	sp,sp,-64
     69e:	dc22                	sw	s0,56(sp)
     6a0:	d84a                	sw	s2,48(sp)
     6a2:	d64e                	sw	s3,44(sp)
     6a4:	de06                	sw	ra,60(sp)
     6a6:	da26                	sw	s1,52(sp)
     6a8:	d452                	sw	s4,40(sp)
     6aa:	d256                	sw	s5,36(sp)
     6ac:	d05a                	sw	s6,32(sp)
     6ae:	ce5e                	sw	s7,28(sp)
     6b0:	cc62                	sw	s8,24(sp)
     6b2:	ca66                	sw	s9,20(sp)
     6b4:	c86a                	sw	s10,16(sp)
     6b6:	c66e                	sw	s11,12(sp)
     6b8:	0065f993          	andi	s3,a1,6
     6bc:	892a                	mv	s2,a0
     6be:	842e                	mv	s0,a1
     6c0:	06098563          	beqz	s3,72a <irq+0x8e>
     6c4:	4118                	lw	a4,0(a0)
     6c6:	00177693          	andi	a3,a4,1
     6ca:	ffc70793          	addi	a5,a4,-4
     6ce:	c299                	beqz	a3,6d4 <irq+0x38>
     6d0:	ffd70793          	addi	a5,a4,-3
     6d4:	0007d483          	lhu	s1,0(a5)
     6d8:	470d                	li	a4,3
     6da:	0034f613          	andi	a2,s1,3
     6de:	00e61663          	bne	a2,a4,6ea <irq+0x4e>
     6e2:	0027d783          	lhu	a5,2(a5)
     6e6:	07c2                	slli	a5,a5,0x10
     6e8:	8cdd                	or	s1,s1,a5
     6ea:	0034fa13          	andi	s4,s1,3
     6ee:	ffda0793          	addi	a5,s4,-3
     6f2:	00f037b3          	snez	a5,a5
     6f6:	02d78a63          	beq	a5,a3,72a <irq+0x8e>
     6fa:	6531                	lui	a0,0xc
     6fc:	04850513          	addi	a0,a0,72 # c048 <__modsi3+0x6c>
     700:	2c2d                	jal	93a <print_str>
     702:	00092503          	lw	a0,0(s2)
     706:	45a1                	li	a1,8
     708:	2c51                	jal	99c <print_hex>
     70a:	6531                	lui	a0,0xc
     70c:	08450513          	addi	a0,a0,132 # c084 <__modsi3+0xa8>
     710:	242d                	jal	93a <print_str>
     712:	478d                	li	a5,3
     714:	45a1                	li	a1,8
     716:	00fa0363          	beq	s4,a5,71c <irq+0x80>
     71a:	4591                	li	a1,4
     71c:	8526                	mv	a0,s1
     71e:	2cbd                	jal	99c <print_hex>
     720:	6531                	lui	a0,0xc
     722:	03c50513          	addi	a0,a0,60 # c03c <__modsi3+0x60>
     726:	2c11                	jal	93a <print_str>
     728:	9002                	ebreak
     72a:	01047793          	andi	a5,s0,16
     72e:	c799                	beqz	a5,73c <irq+0xa0>
     730:	6731                	lui	a4,0xc
     732:	4c072783          	lw	a5,1216(a4) # c4c0 <ext_irq_4_count.2>
     736:	0785                	addi	a5,a5,1
     738:	4cf72023          	sw	a5,1216(a4)
     73c:	02047793          	andi	a5,s0,32
     740:	c799                	beqz	a5,74e <irq+0xb2>
     742:	6731                	lui	a4,0xc
     744:	4bc72783          	lw	a5,1212(a4) # c4bc <ext_irq_5_count.1>
     748:	0785                	addi	a5,a5,1
     74a:	4af72e23          	sw	a5,1212(a4)
     74e:	00147793          	andi	a5,s0,1
     752:	c799                	beqz	a5,760 <irq+0xc4>
     754:	6731                	lui	a4,0xc
     756:	4b872783          	lw	a5,1208(a4) # c4b8 <timer_irq_count.0>
     75a:	0785                	addi	a5,a5,1
     75c:	4af72c23          	sw	a5,1208(a4)
     760:	12098963          	beqz	s3,892 <irq+0x1f6>
     764:	00092783          	lw	a5,0(s2)
     768:	0017f713          	andi	a4,a5,1
     76c:	ffc78a13          	addi	s4,a5,-4
     770:	c319                	beqz	a4,776 <irq+0xda>
     772:	ffd78a13          	addi	s4,a5,-3
     776:	000a5983          	lhu	s3,0(s4)
     77a:	478d                	li	a5,3
     77c:	0039f713          	andi	a4,s3,3
     780:	00f71763          	bne	a4,a5,78e <irq+0xf2>
     784:	002a5783          	lhu	a5,2(s4)
     788:	07c2                	slli	a5,a5,0x10
     78a:	00f9e9b3          	or	s3,s3,a5
     78e:	64b1                	lui	s1,0xc
     790:	03c48513          	addi	a0,s1,60 # c03c <__modsi3+0x60>
     794:	225d                	jal	93a <print_str>
     796:	6b31                	lui	s6,0xc
     798:	090b0513          	addi	a0,s6,144 # c090 <__modsi3+0xb4>
     79c:	2a79                	jal	93a <print_str>
     79e:	00247793          	andi	a5,s0,2
     7a2:	c78d                	beqz	a5,7cc <irq+0x130>
     7a4:	001007b7          	lui	a5,0x100
     7a8:	07378793          	addi	a5,a5,115 # 100073 <end+0xf3025>
     7ac:	00f98663          	beq	s3,a5,7b8 <irq+0x11c>
     7b0:	67a5                	lui	a5,0x9
     7b2:	0789                	addi	a5,a5,2 # 9002 <test_29+0x16>
     7b4:	0ef99f63          	bne	s3,a5,8b2 <irq+0x216>
     7b8:	6531                	lui	a0,0xc
     7ba:	0d050513          	addi	a0,a0,208 # c0d0 <__modsi3+0xf4>
     7be:	2ab5                	jal	93a <print_str>
     7c0:	45a1                	li	a1,8
     7c2:	8552                	mv	a0,s4
     7c4:	2ae1                	jal	99c <print_hex>
     7c6:	03c48513          	addi	a0,s1,60
     7ca:	2a85                	jal	93a <print_str>
     7cc:	8811                	andi	s0,s0,4
     7ce:	c805                	beqz	s0,7fe <irq+0x162>
     7d0:	6531                	lui	a0,0xc
     7d2:	11050513          	addi	a0,a0,272 # c110 <__modsi3+0x134>
     7d6:	2295                	jal	93a <print_str>
     7d8:	45a1                	li	a1,8
     7da:	8552                	mv	a0,s4
     7dc:	22c1                	jal	99c <print_hex>
     7de:	6531                	lui	a0,0xc
     7e0:	10850513          	addi	a0,a0,264 # c108 <__modsi3+0x12c>
     7e4:	2a99                	jal	93a <print_str>
     7e6:	0039f793          	andi	a5,s3,3
     7ea:	470d                	li	a4,3
     7ec:	4591                	li	a1,4
     7ee:	00e79363          	bne	a5,a4,7f4 <irq+0x158>
     7f2:	45a1                	li	a1,8
     7f4:	854e                	mv	a0,s3
     7f6:	225d                	jal	99c <print_hex>
     7f8:	03c48513          	addi	a0,s1,60
     7fc:	2a3d                	jal	93a <print_str>
     7fe:	6ab1                	lui	s5,0xc
     800:	4a01                	li	s4,0
     802:	4c25                	li	s8,9
     804:	4ccd                	li	s9,19
     806:	4d75                	li	s10,29
     808:	040a8a93          	addi	s5,s5,64 # c040 <__modsi3+0x64>
     80c:	6db1                	lui	s11,0xc
     80e:	8452                	mv	s0,s4
     810:	4981                	li	s3,0
     812:	4b8d                	li	s7,3
     814:	0c041363          	bnez	s0,8da <irq+0x23e>
     818:	130d8513          	addi	a0,s11,304 # c130 <__modsi3+0x154>
     81c:	2a39                	jal	93a <print_str>
     81e:	00241793          	slli	a5,s0,0x2
     822:	97ca                	add	a5,a5,s2
     824:	4388                	lw	a0,0(a5)
     826:	45a1                	li	a1,8
     828:	2a95                	jal	99c <print_hex>
     82a:	8556                	mv	a0,s5
     82c:	01799463          	bne	s3,s7,834 <irq+0x198>
     830:	03c48513          	addi	a0,s1,60
     834:	2219                	jal	93a <print_str>
     836:	0985                	addi	s3,s3,1
     838:	4791                	li	a5,4
     83a:	0421                	addi	s0,s0,8
     83c:	fcf99ce3          	bne	s3,a5,814 <irq+0x178>
     840:	0a05                	addi	s4,s4,1
     842:	47a1                	li	a5,8
     844:	fcfa15e3          	bne	s4,a5,80e <irq+0x172>
     848:	090b0513          	addi	a0,s6,144
     84c:	20fd                	jal	93a <print_str>
     84e:	6531                	lui	a0,0xc
     850:	13850513          	addi	a0,a0,312 # c138 <__modsi3+0x15c>
     854:	20dd                	jal	93a <print_str>
     856:	67b1                	lui	a5,0xc
     858:	4c07a503          	lw	a0,1216(a5) # c4c0 <ext_irq_4_count.2>
     85c:	28c5                	jal	94c <print_dec>
     85e:	03c48513          	addi	a0,s1,60
     862:	28e1                	jal	93a <print_str>
     864:	6531                	lui	a0,0xc
     866:	16050513          	addi	a0,a0,352 # c160 <__modsi3+0x184>
     86a:	28c1                	jal	93a <print_str>
     86c:	67b1                	lui	a5,0xc
     86e:	4bc7a503          	lw	a0,1212(a5) # c4bc <ext_irq_5_count.1>
     872:	28e9                	jal	94c <print_dec>
     874:	03c48513          	addi	a0,s1,60
     878:	20c9                	jal	93a <print_str>
     87a:	6531                	lui	a0,0xc
     87c:	18850513          	addi	a0,a0,392 # c188 <__modsi3+0x1ac>
     880:	286d                	jal	93a <print_str>
     882:	67b1                	lui	a5,0xc
     884:	4b87a503          	lw	a0,1208(a5) # c4b8 <timer_irq_count.0>
     888:	20d1                	jal	94c <print_dec>
     88a:	03c48513          	addi	a0,s1,60
     88e:	2075                	jal	93a <print_str>
     890:	9002                	ebreak
     892:	50f2                	lw	ra,60(sp)
     894:	5462                	lw	s0,56(sp)
     896:	54d2                	lw	s1,52(sp)
     898:	59b2                	lw	s3,44(sp)
     89a:	5a22                	lw	s4,40(sp)
     89c:	5a92                	lw	s5,36(sp)
     89e:	5b02                	lw	s6,32(sp)
     8a0:	4bf2                	lw	s7,28(sp)
     8a2:	4c62                	lw	s8,24(sp)
     8a4:	4cd2                	lw	s9,20(sp)
     8a6:	4d42                	lw	s10,16(sp)
     8a8:	4db2                	lw	s11,12(sp)
     8aa:	854a                	mv	a0,s2
     8ac:	5942                	lw	s2,48(sp)
     8ae:	6121                	addi	sp,sp,64
     8b0:	8082                	ret
     8b2:	6531                	lui	a0,0xc
     8b4:	0ec50513          	addi	a0,a0,236 # c0ec <__modsi3+0x110>
     8b8:	2049                	jal	93a <print_str>
     8ba:	45a1                	li	a1,8
     8bc:	8552                	mv	a0,s4
     8be:	28f9                	jal	99c <print_hex>
     8c0:	6531                	lui	a0,0xc
     8c2:	10850513          	addi	a0,a0,264 # c108 <__modsi3+0x12c>
     8c6:	2895                	jal	93a <print_str>
     8c8:	0039f793          	andi	a5,s3,3
     8cc:	470d                	li	a4,3
     8ce:	4591                	li	a1,4
     8d0:	00e79363          	bne	a5,a4,8d6 <irq+0x23a>
     8d4:	45a1                	li	a1,8
     8d6:	854e                	mv	a0,s3
     8d8:	b5f5                	j	7c4 <irq+0x128>
     8da:	07800513          	li	a0,120
     8de:	008c4f63          	blt	s8,s0,8fc <irq+0x260>
     8e2:	2881                	jal	932 <print_chr>
     8e4:	03040513          	addi	a0,s0,48
     8e8:	0ff57513          	zext.b	a0,a0
     8ec:	2099                	jal	932 <print_chr>
     8ee:	02000513          	li	a0,32
     8f2:	2081                	jal	932 <print_chr>
     8f4:	02000513          	li	a0,32
     8f8:	282d                	jal	932 <print_chr>
     8fa:	b715                	j	81e <irq+0x182>
     8fc:	008ccb63          	blt	s9,s0,912 <irq+0x276>
     900:	280d                	jal	932 <print_chr>
     902:	03100513          	li	a0,49
     906:	2035                	jal	932 <print_chr>
     908:	02640513          	addi	a0,s0,38
     90c:	0ff57513          	zext.b	a0,a0
     910:	b7cd                	j	8f2 <irq+0x256>
     912:	008d4963          	blt	s10,s0,924 <irq+0x288>
     916:	2831                	jal	932 <print_chr>
     918:	03200513          	li	a0,50
     91c:	2819                	jal	932 <print_chr>
     91e:	01c40513          	addi	a0,s0,28
     922:	b7ed                	j	90c <irq+0x270>
     924:	2039                	jal	932 <print_chr>
     926:	03300513          	li	a0,51
     92a:	2021                	jal	932 <print_chr>
     92c:	01240513          	addi	a0,s0,18
     930:	bff1                	j	90c <irq+0x270>

00000932 <print_chr>:
print_chr():
     932:	100007b7          	lui	a5,0x10000
     936:	c388                	sw	a0,0(a5)
     938:	8082                	ret

0000093a <print_str>:
print_str():
     93a:	10000737          	lui	a4,0x10000
     93e:	00054783          	lbu	a5,0(a0)
     942:	e391                	bnez	a5,946 <print_str+0xc>
     944:	8082                	ret
     946:	0505                	addi	a0,a0,1
     948:	c31c                	sw	a5,0(a4)
     94a:	bfd5                	j	93e <print_str+0x4>

0000094c <print_dec>:
print_dec():
     94c:	1101                	addi	sp,sp,-32 # 1ffe0 <end+0x12f92>
     94e:	cc22                	sw	s0,24(sp)
     950:	0040                	addi	s0,sp,4
     952:	ca26                	sw	s1,20(sp)
     954:	c84a                	sw	s2,16(sp)
     956:	ce06                	sw	ra,28(sp)
     958:	84aa                	mv	s1,a0
     95a:	8922                	mv	s2,s0
     95c:	e09d                	bnez	s1,982 <print_dec+0x36>
     95e:	03240263          	beq	s0,s2,982 <print_dec+0x36>
     962:	10000737          	lui	a4,0x10000
     966:	fff44783          	lbu	a5,-1(s0)
     96a:	147d                	addi	s0,s0,-1
     96c:	03078793          	addi	a5,a5,48 # 10000030 <end+0xfff2fe2>
     970:	c31c                	sw	a5,0(a4)
     972:	ff241ae3          	bne	s0,s2,966 <print_dec+0x1a>
     976:	40f2                	lw	ra,28(sp)
     978:	4462                	lw	s0,24(sp)
     97a:	44d2                	lw	s1,20(sp)
     97c:	4942                	lw	s2,16(sp)
     97e:	6105                	addi	sp,sp,32
     980:	8082                	ret
     982:	45a9                	li	a1,10
     984:	8526                	mv	a0,s1
     986:	6220b0ef          	jal	bfa8 <__umodsi3>
     98a:	00a40023          	sb	a0,0(s0)
     98e:	45a9                	li	a1,10
     990:	8526                	mv	a0,s1
     992:	5ce0b0ef          	jal	bf60 <__hidden___udivsi3>
     996:	0405                	addi	s0,s0,1
     998:	84aa                	mv	s1,a0
     99a:	b7c9                	j	95c <print_dec+0x10>

0000099c <print_hex>:
print_hex():
     99c:	15fd                	addi	a1,a1,-1
     99e:	6731                	lui	a4,0xc
     9a0:	058a                	slli	a1,a1,0x2
     9a2:	1a870713          	addi	a4,a4,424 # c1a8 <__modsi3+0x1cc>
     9a6:	100006b7          	lui	a3,0x10000
     9aa:	0005d363          	bgez	a1,9b0 <print_hex+0x14>
     9ae:	8082                	ret
     9b0:	00b557b3          	srl	a5,a0,a1
     9b4:	8bbd                	andi	a5,a5,15
     9b6:	97ba                	add	a5,a5,a4
     9b8:	0007c783          	lbu	a5,0(a5)
     9bc:	15f1                	addi	a1,a1,-4
     9be:	c29c                	sw	a5,0(a3)
     9c0:	b7ed                	j	9aa <print_hex+0xe>

000009c2 <hello>:
hello():
     9c2:	6531                	lui	a0,0xc
     9c4:	1bc50513          	addi	a0,a0,444 # c1bc <__modsi3+0x1e0>
     9c8:	bf8d                	j	93a <print_str>

000009ca <print_prime>:
print_prime():
     9ca:	1141                	addi	sp,sp,-16
     9cc:	c422                	sw	s0,8(sp)
     9ce:	c226                	sw	s1,4(sp)
     9d0:	c606                	sw	ra,12(sp)
     9d2:	47a5                	li	a5,9
     9d4:	842a                	mv	s0,a0
     9d6:	84ae                	mv	s1,a1
     9d8:	00a7c663          	blt	a5,a0,9e4 <print_prime+0x1a>
     9dc:	6531                	lui	a0,0xc
     9de:	1cc50513          	addi	a0,a0,460 # c1cc <__modsi3+0x1f0>
     9e2:	3fa1                	jal	93a <print_str>
     9e4:	8522                	mv	a0,s0
     9e6:	379d                	jal	94c <print_dec>
     9e8:	ff640793          	addi	a5,s0,-10
     9ec:	4725                	li	a4,9
     9ee:	06f77863          	bgeu	a4,a5,a5e <print_prime+0x94>
     9f2:	45a9                	li	a1,10
     9f4:	8522                	mv	a0,s0
     9f6:	5e60b0ef          	jal	bfdc <__modsi3>
     9fa:	4789                	li	a5,2
     9fc:	04f50963          	beq	a0,a5,a4e <print_prime+0x84>
     a00:	478d                	li	a5,3
     a02:	04f50a63          	beq	a0,a5,a56 <print_prime+0x8c>
     a06:	4785                	li	a5,1
     a08:	04f51b63          	bne	a0,a5,a5e <print_prime+0x94>
     a0c:	6531                	lui	a0,0xc
     a0e:	1d050513          	addi	a0,a0,464 # c1d0 <__modsi3+0x1f4>
     a12:	3725                	jal	93a <print_str>
     a14:	6531                	lui	a0,0xc
     a16:	1e050513          	addi	a0,a0,480 # c1e0 <__modsi3+0x204>
     a1a:	3705                	jal	93a <print_str>
     a1c:	8526                	mv	a0,s1
     a1e:	373d                	jal	94c <print_dec>
     a20:	6531                	lui	a0,0xc
     a22:	1ec50513          	addi	a0,a0,492 # c1ec <__modsi3+0x210>
     a26:	3f11                	jal	93a <print_str>
     a28:	66b1                	lui	a3,0xc
     a2a:	54c6a703          	lw	a4,1356(a3) # c54c <hash>
     a2e:	40b2                	lw	ra,12(sp)
     a30:	00571793          	slli	a5,a4,0x5
     a34:	97ba                	add	a5,a5,a4
     a36:	8fa1                	xor	a5,a5,s0
     a38:	00579713          	slli	a4,a5,0x5
     a3c:	4422                	lw	s0,8(sp)
     a3e:	97ba                	add	a5,a5,a4
     a40:	0097c5b3          	xor	a1,a5,s1
     a44:	54b6a623          	sw	a1,1356(a3)
     a48:	4492                	lw	s1,4(sp)
     a4a:	0141                	addi	sp,sp,16
     a4c:	8082                	ret
     a4e:	6531                	lui	a0,0xc
     a50:	1d450513          	addi	a0,a0,468 # c1d4 <__modsi3+0x1f8>
     a54:	bf7d                	j	a12 <print_prime+0x48>
     a56:	6531                	lui	a0,0xc
     a58:	1d850513          	addi	a0,a0,472 # c1d8 <__modsi3+0x1fc>
     a5c:	bf5d                	j	a12 <print_prime+0x48>
     a5e:	6531                	lui	a0,0xc
     a60:	1dc50513          	addi	a0,a0,476 # c1dc <__modsi3+0x200>
     a64:	b77d                	j	a12 <print_prime+0x48>

00000a66 <sieve>:
sieve():
     a66:	7179                	addi	sp,sp,-48
     a68:	6785                	lui	a5,0x1
     a6a:	d422                	sw	s0,40(sp)
     a6c:	50578793          	addi	a5,a5,1285 # 1505 <test_11+0x5>
     a70:	4505                	li	a0,1
     a72:	6431                	lui	s0,0xc
     a74:	4589                	li	a1,2
     a76:	d226                	sw	s1,36(sp)
     a78:	d04a                	sw	s2,32(sp)
     a7a:	ce4e                	sw	s3,28(sp)
     a7c:	cc52                	sw	s4,24(sp)
     a7e:	ca56                	sw	s5,20(sp)
     a80:	c85a                	sw	s6,16(sp)
     a82:	d606                	sw	ra,44(sp)
     a84:	c65e                	sw	s7,12(sp)
     a86:	54f42623          	sw	a5,1356(s0) # c54c <hash>
     a8a:	69b1                	lui	s3,0xc
     a8c:	3f3d                	jal	9ca <print_prime>
     a8e:	490d                	li	s2,3
     a90:	4481                	li	s1,0
     a92:	4509                	li	a0,2
     a94:	55098993          	addi	s3,s3,1360 # c550 <bitmap>
     a98:	4a05                	li	s4,1
     a9a:	08200b13          	li	s6,130
     a9e:	04000a93          	li	s5,64
     aa2:	4054d713          	srai	a4,s1,0x5
     aa6:	070a                	slli	a4,a4,0x2
     aa8:	974e                	add	a4,a4,s3
     aaa:	4318                	lw	a4,0(a4)
     aac:	009a17b3          	sll	a5,s4,s1
     ab0:	8ff9                	and	a5,a5,a4
     ab2:	e3b1                	bnez	a5,af6 <sieve+0x90>
     ab4:	85ca                	mv	a1,s2
     ab6:	00150b93          	addi	s7,a0,1
     aba:	3f01                	jal	9ca <print_prime>
     abc:	00191693          	slli	a3,s2,0x1
     ac0:	0016f793          	andi	a5,a3,1
     ac4:	c795                	beqz	a5,af0 <sieve+0x8a>
     ac6:	ffd68613          	addi	a2,a3,-3
     aca:	01f65713          	srli	a4,a2,0x1f
     ace:	9732                	add	a4,a4,a2
     ad0:	8705                	srai	a4,a4,0x1
     ad2:	02db4163          	blt	s6,a3,af4 <sieve+0x8e>
     ad6:	41f65793          	srai	a5,a2,0x1f
     ada:	03f7f793          	andi	a5,a5,63
     ade:	97b2                	add	a5,a5,a2
     ae0:	8799                	srai	a5,a5,0x6
     ae2:	078a                	slli	a5,a5,0x2
     ae4:	97ce                	add	a5,a5,s3
     ae6:	4390                	lw	a2,0(a5)
     ae8:	00ea1733          	sll	a4,s4,a4
     aec:	8f51                	or	a4,a4,a2
     aee:	c398                	sw	a4,0(a5)
     af0:	96ca                	add	a3,a3,s2
     af2:	b7f9                	j	ac0 <sieve+0x5a>
     af4:	855e                	mv	a0,s7
     af6:	0485                	addi	s1,s1,1
     af8:	0909                	addi	s2,s2,2
     afa:	fb5494e3          	bne	s1,s5,aa2 <sieve+0x3c>
     afe:	6531                	lui	a0,0xc
     b00:	1f050513          	addi	a0,a0,496 # c1f0 <__modsi3+0x214>
     b04:	3d1d                	jal	93a <print_str>
     b06:	54c42503          	lw	a0,1356(s0)
     b0a:	45a1                	li	a1,8
     b0c:	3d41                	jal	99c <print_hex>
     b0e:	54c42703          	lw	a4,1356(s0)
     b12:	1772a7b7          	lui	a5,0x1772a
     b16:	48f78793          	addi	a5,a5,1167 # 1772a48f <end+0x1771d441>
     b1a:	02f71063          	bne	a4,a5,b3a <sieve+0xd4>
     b1e:	5422                	lw	s0,40(sp)
     b20:	50b2                	lw	ra,44(sp)
     b22:	5492                	lw	s1,36(sp)
     b24:	5902                	lw	s2,32(sp)
     b26:	49f2                	lw	s3,28(sp)
     b28:	4a62                	lw	s4,24(sp)
     b2a:	4ad2                	lw	s5,20(sp)
     b2c:	4b42                	lw	s6,16(sp)
     b2e:	4bb2                	lw	s7,12(sp)
     b30:	6531                	lui	a0,0xc
     b32:	1fc50513          	addi	a0,a0,508 # c1fc <__modsi3+0x220>
     b36:	6145                	addi	sp,sp,48
     b38:	b509                	j	93a <print_str>
     b3a:	6531                	lui	a0,0xc
     b3c:	20450513          	addi	a0,a0,516 # c204 <__modsi3+0x228>
     b40:	3bed                	jal	93a <print_str>
     b42:	9002                	ebreak
     b44:	50b2                	lw	ra,44(sp)
     b46:	5422                	lw	s0,40(sp)
     b48:	5492                	lw	s1,36(sp)
     b4a:	5902                	lw	s2,32(sp)
     b4c:	49f2                	lw	s3,28(sp)
     b4e:	4a62                	lw	s4,24(sp)
     b50:	4ad2                	lw	s5,20(sp)
     b52:	4b42                	lw	s6,16(sp)
     b54:	4bb2                	lw	s7,12(sp)
     b56:	6145                	addi	sp,sp,48
     b58:	8082                	ret

00000b5a <xorshift32>:
xorshift32():
     b5a:	66b1                	lui	a3,0xc
     b5c:	57c6a783          	lw	a5,1404(a3) # c57c <x.0>
     b60:	00d79713          	slli	a4,a5,0xd
     b64:	8f3d                	xor	a4,a4,a5
     b66:	01175793          	srli	a5,a4,0x11
     b6a:	8fb9                	xor	a5,a5,a4
     b6c:	00579513          	slli	a0,a5,0x5
     b70:	8d3d                	xor	a0,a0,a5
     b72:	56a6ae23          	sw	a0,1404(a3)
     b76:	8082                	ret

00000b78 <multest>:
multest():
     b78:	711d                	addi	sp,sp,-96
     b7a:	c8ca                	sw	s2,80(sp)
     b7c:	c6ce                	sw	s3,76(sp)
     b7e:	de5e                	sw	s7,60(sp)
     b80:	dc62                	sw	s8,56(sp)
     b82:	d86a                	sw	s10,48(sp)
     b84:	d66e                	sw	s11,44(sp)
     b86:	ce86                	sw	ra,92(sp)
     b88:	cca2                	sw	s0,88(sp)
     b8a:	caa6                	sw	s1,84(sp)
     b8c:	c4d2                	sw	s4,72(sp)
     b8e:	c2d6                	sw	s5,68(sp)
     b90:	c0da                	sw	s6,64(sp)
     b92:	da66                	sw	s9,52(sp)
     b94:	4981                	li	s3,0
     b96:	6bb1                	lui	s7,0xc
     b98:	6db1                	lui	s11,0xc
     b9a:	6c31                	lui	s8,0xc
     b9c:	6931                	lui	s2,0xc
     b9e:	6d31                	lui	s10,0xc
     ba0:	3f6d                	jal	b5a <xorshift32>
     ba2:	842a                	mv	s0,a0
     ba4:	3f5d                	jal	b5a <xorshift32>
     ba6:	4789                	li	a5,2
     ba8:	84aa                	mv	s1,a0
     baa:	14f98b63          	beq	s3,a5,d00 <multest+0x188>
     bae:	1537c363          	blt	a5,s3,cf4 <multest+0x17c>
     bb2:	14098c63          	beqz	s3,d0a <multest+0x192>
     bb6:	4481                	li	s1,0
     bb8:	4401                	li	s0,0
     bba:	41f4d793          	srai	a5,s1,0x1f
     bbe:	20cb8513          	addi	a0,s7,524 # c20c <__modsi3+0x230>
     bc2:	c63e                	sw	a5,12(sp)
     bc4:	3b9d                	jal	93a <print_str>
     bc6:	45a1                	li	a1,8
     bc8:	41f45513          	srai	a0,s0,0x1f
     bcc:	3bc1                	jal	99c <print_hex>
     bce:	218d8513          	addi	a0,s11,536 # c218 <__modsi3+0x23c>
     bd2:	33a5                	jal	93a <print_str>
     bd4:	45a1                	li	a1,8
     bd6:	8522                	mv	a0,s0
     bd8:	33d1                	jal	99c <print_hex>
     bda:	21cc0513          	addi	a0,s8,540 # c21c <__modsi3+0x240>
     bde:	3bb1                	jal	93a <print_str>
     be0:	45a1                	li	a1,8
     be2:	41f4d513          	srai	a0,s1,0x1f
     be6:	3b5d                	jal	99c <print_hex>
     be8:	218d8513          	addi	a0,s11,536
     bec:	33b9                	jal	93a <print_str>
     bee:	45a1                	li	a1,8
     bf0:	8526                	mv	a0,s1
     bf2:	336d                	jal	99c <print_hex>
     bf4:	4529                	li	a0,10
     bf6:	3b35                	jal	932 <print_chr>
     bf8:	6531                	lui	a0,0xc
     bfa:	22050513          	addi	a0,a0,544 # c220 <__modsi3+0x244>
     bfe:	3b35                	jal	93a <print_str>
     c00:	85a6                	mv	a1,s1
     c02:	8522                	mv	a0,s0
     c04:	901ff0ef          	jal	504 <hard_mul>
     c08:	45a1                	li	a1,8
     c0a:	ce2a                	sw	a0,28(sp)
     c0c:	3b41                	jal	99c <print_hex>
     c0e:	22c90513          	addi	a0,s2,556 # c22c <__modsi3+0x250>
     c12:	3325                	jal	93a <print_str>
     c14:	85a6                	mv	a1,s1
     c16:	8522                	mv	a0,s0
     c18:	8f3ff0ef          	jal	50a <hard_mulh>
     c1c:	45a1                	li	a1,8
     c1e:	cc2a                	sw	a0,24(sp)
     c20:	3bb5                	jal	99c <print_hex>
     c22:	22c90513          	addi	a0,s2,556
     c26:	3b11                	jal	93a <print_str>
     c28:	85a6                	mv	a1,s1
     c2a:	8522                	mv	a0,s0
     c2c:	8e5ff0ef          	jal	510 <hard_mulhsu>
     c30:	45a1                	li	a1,8
     c32:	ca2a                	sw	a0,20(sp)
     c34:	33a5                	jal	99c <print_hex>
     c36:	22c90513          	addi	a0,s2,556
     c3a:	3301                	jal	93a <print_str>
     c3c:	85a6                	mv	a1,s1
     c3e:	8522                	mv	a0,s0
     c40:	8d7ff0ef          	jal	516 <hard_mulhu>
     c44:	45a1                	li	a1,8
     c46:	8caa                	mv	s9,a0
     c48:	3b91                	jal	99c <print_hex>
     c4a:	4529                	li	a0,10
     c4c:	31dd                	jal	932 <print_chr>
     c4e:	6531                	lui	a0,0xc
     c50:	23050513          	addi	a0,a0,560 # c230 <__modsi3+0x254>
     c54:	31dd                	jal	93a <print_str>
     c56:	85a6                	mv	a1,s1
     c58:	8522                	mv	a0,s0
     c5a:	26e0b0ef          	jal	bec8 <__mulsi3>
     c5e:	45a1                	li	a1,8
     c60:	c82a                	sw	a0,16(sp)
     c62:	3b2d                	jal	99c <print_hex>
     c64:	22c90513          	addi	a0,s2,556
     c68:	39c9                	jal	93a <print_str>
     c6a:	8626                	mv	a2,s1
     c6c:	41f4d693          	srai	a3,s1,0x1f
     c70:	8522                	mv	a0,s0
     c72:	41f45593          	srai	a1,s0,0x1f
     c76:	2760b0ef          	jal	beec <__muldi3>
     c7a:	8b2e                	mv	s6,a1
     c7c:	855a                	mv	a0,s6
     c7e:	45a1                	li	a1,8
     c80:	3b31                	jal	99c <print_hex>
     c82:	22c90513          	addi	a0,s2,556
     c86:	3955                	jal	93a <print_str>
     c88:	8626                	mv	a2,s1
     c8a:	4681                	li	a3,0
     c8c:	8522                	mv	a0,s0
     c8e:	41f45593          	srai	a1,s0,0x1f
     c92:	25a0b0ef          	jal	beec <__muldi3>
     c96:	8aae                	mv	s5,a1
     c98:	8556                	mv	a0,s5
     c9a:	45a1                	li	a1,8
     c9c:	3301                	jal	99c <print_hex>
     c9e:	22c90513          	addi	a0,s2,556
     ca2:	3961                	jal	93a <print_str>
     ca4:	8626                	mv	a2,s1
     ca6:	4681                	li	a3,0
     ca8:	8522                	mv	a0,s0
     caa:	4581                	li	a1,0
     cac:	2400b0ef          	jal	beec <__muldi3>
     cb0:	8a2e                	mv	s4,a1
     cb2:	8552                	mv	a0,s4
     cb4:	45a1                	li	a1,8
     cb6:	31dd                	jal	99c <print_hex>
     cb8:	22c90513          	addi	a0,s2,556
     cbc:	39bd                	jal	93a <print_str>
     cbe:	4842                	lw	a6,16(sp)
     cc0:	48f2                	lw	a7,28(sp)
     cc2:	47d2                	lw	a5,20(sp)
     cc4:	4762                	lw	a4,24(sp)
     cc6:	05088663          	beq	a7,a6,d12 <multest+0x19a>
     cca:	6531                	lui	a0,0xc
     ccc:	23c50513          	addi	a0,a0,572 # c23c <__modsi3+0x260>
     cd0:	c6bff0ef          	jal	93a <print_str>
     cd4:	9002                	ebreak
     cd6:	40f6                	lw	ra,92(sp)
     cd8:	4466                	lw	s0,88(sp)
     cda:	44d6                	lw	s1,84(sp)
     cdc:	4946                	lw	s2,80(sp)
     cde:	49b6                	lw	s3,76(sp)
     ce0:	4a26                	lw	s4,72(sp)
     ce2:	4a96                	lw	s5,68(sp)
     ce4:	4b06                	lw	s6,64(sp)
     ce6:	5bf2                	lw	s7,60(sp)
     ce8:	5c62                	lw	s8,56(sp)
     cea:	5cd2                	lw	s9,52(sp)
     cec:	5d42                	lw	s10,48(sp)
     cee:	5db2                	lw	s11,44(sp)
     cf0:	6125                	addi	sp,sp,96
     cf2:	8082                	ret
     cf4:	478d                	li	a5,3
     cf6:	ecf992e3          	bne	s3,a5,bba <multest+0x42>
     cfa:	0406                	slli	s0,s0,0x1
     cfc:	8005                	srli	s0,s0,0x1
     cfe:	a021                	j	d06 <multest+0x18e>
     d00:	800007b7          	lui	a5,0x80000
     d04:	8c5d                	or	s0,s0,a5
     d06:	4481                	li	s1,0
     d08:	bd4d                	j	bba <multest+0x42>
     d0a:	54fd                	li	s1,-1
     d0c:	80000437          	lui	s0,0x80000
     d10:	b56d                	j	bba <multest+0x42>
     d12:	fb671ce3          	bne	a4,s6,cca <multest+0x152>
     d16:	fb579ae3          	bne	a5,s5,cca <multest+0x152>
     d1a:	fb4c98e3          	bne	s9,s4,cca <multest+0x152>
     d1e:	1fcd0513          	addi	a0,s10,508 # c1fc <__modsi3+0x220>
     d22:	c19ff0ef          	jal	93a <print_str>
     d26:	6531                	lui	a0,0xc
     d28:	24450513          	addi	a0,a0,580 # c244 <__modsi3+0x268>
     d2c:	c0fff0ef          	jal	93a <print_str>
     d30:	85a6                	mv	a1,s1
     d32:	8522                	mv	a0,s0
     d34:	fe8ff0ef          	jal	51c <hard_div>
     d38:	45a1                	li	a1,8
     d3a:	8caa                	mv	s9,a0
     d3c:	c61ff0ef          	jal	99c <print_hex>
     d40:	22c90513          	addi	a0,s2,556
     d44:	bf7ff0ef          	jal	93a <print_str>
     d48:	85a6                	mv	a1,s1
     d4a:	8522                	mv	a0,s0
     d4c:	fd6ff0ef          	jal	522 <hard_divu>
     d50:	45a1                	li	a1,8
     d52:	c82a                	sw	a0,16(sp)
     d54:	c49ff0ef          	jal	99c <print_hex>
     d58:	22c90513          	addi	a0,s2,556
     d5c:	bdfff0ef          	jal	93a <print_str>
     d60:	85a6                	mv	a1,s1
     d62:	8522                	mv	a0,s0
     d64:	fc4ff0ef          	jal	528 <hard_rem>
     d68:	45a1                	li	a1,8
     d6a:	ca2a                	sw	a0,20(sp)
     d6c:	c31ff0ef          	jal	99c <print_hex>
     d70:	22c90513          	addi	a0,s2,556
     d74:	bc7ff0ef          	jal	93a <print_str>
     d78:	85a6                	mv	a1,s1
     d7a:	8522                	mv	a0,s0
     d7c:	fb2ff0ef          	jal	52e <hard_remu>
     d80:	45a1                	li	a1,8
     d82:	cc2a                	sw	a0,24(sp)
     d84:	c19ff0ef          	jal	99c <print_hex>
     d88:	4529                	li	a0,10
     d8a:	ba9ff0ef          	jal	932 <print_chr>
     d8e:	6531                	lui	a0,0xc
     d90:	25050513          	addi	a0,a0,592 # c250 <__modsi3+0x274>
     d94:	ba7ff0ef          	jal	93a <print_str>
     d98:	5b7d                	li	s6,-1
     d9a:	c889                	beqz	s1,dac <multest+0x234>
     d9c:	46b2                	lw	a3,12(sp)
     d9e:	8626                	mv	a2,s1
     da0:	8522                	mv	a0,s0
     da2:	41f45593          	srai	a1,s0,0x1f
     da6:	0460a0ef          	jal	adec <__divdi3>
     daa:	8b2a                	mv	s6,a0
     dac:	45a1                	li	a1,8
     dae:	855a                	mv	a0,s6
     db0:	bedff0ef          	jal	99c <print_hex>
     db4:	22c90513          	addi	a0,s2,556
     db8:	b83ff0ef          	jal	93a <print_str>
     dbc:	5afd                	li	s5,-1
     dbe:	c881                	beqz	s1,dce <multest+0x256>
     dc0:	8626                	mv	a2,s1
     dc2:	4681                	li	a3,0
     dc4:	8522                	mv	a0,s0
     dc6:	4581                	li	a1,0
     dc8:	0ed0a0ef          	jal	b6b4 <__udivdi3>
     dcc:	8aaa                	mv	s5,a0
     dce:	45a1                	li	a1,8
     dd0:	8556                	mv	a0,s5
     dd2:	bcbff0ef          	jal	99c <print_hex>
     dd6:	22c90513          	addi	a0,s2,556
     dda:	b61ff0ef          	jal	93a <print_str>
     dde:	8a22                	mv	s4,s0
     de0:	c889                	beqz	s1,df2 <multest+0x27a>
     de2:	46b2                	lw	a3,12(sp)
     de4:	8626                	mv	a2,s1
     de6:	8522                	mv	a0,s0
     de8:	41f45593          	srai	a1,s0,0x1f
     dec:	4780a0ef          	jal	b264 <__moddi3>
     df0:	8a2a                	mv	s4,a0
     df2:	8552                	mv	a0,s4
     df4:	45a1                	li	a1,8
     df6:	ba7ff0ef          	jal	99c <print_hex>
     dfa:	22c90513          	addi	a0,s2,556
     dfe:	b3dff0ef          	jal	93a <print_str>
     e02:	c881                	beqz	s1,e12 <multest+0x29a>
     e04:	8522                	mv	a0,s0
     e06:	8626                	mv	a2,s1
     e08:	4681                	li	a3,0
     e0a:	4581                	li	a1,0
     e0c:	4d90a0ef          	jal	bae4 <__umoddi3>
     e10:	842a                	mv	s0,a0
     e12:	8522                	mv	a0,s0
     e14:	45a1                	li	a1,8
     e16:	b87ff0ef          	jal	99c <print_hex>
     e1a:	22c90513          	addi	a0,s2,556
     e1e:	b1dff0ef          	jal	93a <print_str>
     e22:	eb9b14e3          	bne	s6,s9,cca <multest+0x152>
     e26:	47c2                	lw	a5,16(sp)
     e28:	eafa91e3          	bne	s5,a5,cca <multest+0x152>
     e2c:	47d2                	lw	a5,20(sp)
     e2e:	e8fa1ee3          	bne	s4,a5,cca <multest+0x152>
     e32:	47e2                	lw	a5,24(sp)
     e34:	e8f41be3          	bne	s0,a5,cca <multest+0x152>
     e38:	1fcd0513          	addi	a0,s10,508
     e3c:	affff0ef          	jal	93a <print_str>
     e40:	0985                	addi	s3,s3,1
     e42:	47bd                	li	a5,15
     e44:	d4f99ee3          	bne	s3,a5,ba0 <multest+0x28>
     e48:	b579                	j	cd6 <multest+0x15e>

00000e4a <stats_print_dec>:
stats_print_dec():
     e4a:	7139                	addi	sp,sp,-64
     e4c:	dc22                	sw	s0,56(sp)
     e4e:	d84a                	sw	s2,48(sp)
     e50:	de06                	sw	ra,60(sp)
     e52:	da26                	sw	s1,52(sp)
     e54:	d64e                	sw	s3,44(sp)
     e56:	d452                	sw	s4,40(sp)
     e58:	d256                	sw	s5,36(sp)
     e5a:	842a                	mv	s0,a0
     e5c:	892e                	mv	s2,a1
     e5e:	03000793          	li	a5,48
     e62:	e219                	bnez	a2,e68 <stats_print_dec+0x1e>
     e64:	02000793          	li	a5,32
     e68:	898a                	mv	s3,sp
     e6a:	0ff7fa13          	zext.b	s4,a5
     e6e:	8ace                	mv	s5,s3
     e70:	84ce                	mv	s1,s3
     e72:	e005                	bnez	s0,e92 <stats_print_dec+0x48>
     e74:	05204163          	bgtz	s2,eb6 <stats_print_dec+0x6c>
     e78:	02000413          	li	s0,32
     e7c:	03549f63          	bne	s1,s5,eba <stats_print_dec+0x70>
     e80:	50f2                	lw	ra,60(sp)
     e82:	5462                	lw	s0,56(sp)
     e84:	54d2                	lw	s1,52(sp)
     e86:	5942                	lw	s2,48(sp)
     e88:	59b2                	lw	s3,44(sp)
     e8a:	5a22                	lw	s4,40(sp)
     e8c:	5a92                	lw	s5,36(sp)
     e8e:	6121                	addi	sp,sp,64
     e90:	8082                	ret
     e92:	45a9                	li	a1,10
     e94:	8522                	mv	a0,s0
     e96:	1120b0ef          	jal	bfa8 <__umodsi3>
     e9a:	03050513          	addi	a0,a0,48
     e9e:	0ff57513          	zext.b	a0,a0
     ea2:	00a98023          	sb	a0,0(s3)
     ea6:	45a9                	li	a1,10
     ea8:	8522                	mv	a0,s0
     eaa:	0b60b0ef          	jal	bf60 <__hidden___udivsi3>
     eae:	842a                	mv	s0,a0
     eb0:	197d                	addi	s2,s2,-1
     eb2:	0985                	addi	s3,s3,1
     eb4:	bf75                	j	e70 <stats_print_dec+0x26>
     eb6:	8552                	mv	a0,s4
     eb8:	b7ed                	j	ea2 <stats_print_dec+0x58>
     eba:	fff4c783          	lbu	a5,-1(s1)
     ebe:	00879a63          	bne	a5,s0,ed2 <stats_print_dec+0x88>
     ec2:	ffe4c783          	lbu	a5,-2(s1)
     ec6:	00879663          	bne	a5,s0,ed2 <stats_print_dec+0x88>
     eca:	02e00793          	li	a5,46
     ece:	fef48fa3          	sb	a5,-1(s1)
     ed2:	fff4c503          	lbu	a0,-1(s1)
     ed6:	14fd                	addi	s1,s1,-1
     ed8:	a5bff0ef          	jal	932 <print_chr>
     edc:	b745                	j	e7c <stats_print_dec+0x32>

00000ede <stats>:
stats():
     ede:	1141                	addi	sp,sp,-16
     ee0:	c606                	sw	ra,12(sp)
     ee2:	c422                	sw	s0,8(sp)
     ee4:	c226                	sw	s1,4(sp)
     ee6:	c0002473          	rdcycle	s0
     eea:	c02024f3          	rdinstret	s1
     eee:	6531                	lui	a0,0xc
     ef0:	25c50513          	addi	a0,a0,604 # c25c <__modsi3+0x280>
     ef4:	a47ff0ef          	jal	93a <print_str>
     ef8:	4601                	li	a2,0
     efa:	45a1                	li	a1,8
     efc:	8522                	mv	a0,s0
     efe:	37b1                	jal	e4a <stats_print_dec>
     f00:	6531                	lui	a0,0xc
     f02:	27450513          	addi	a0,a0,628 # c274 <__modsi3+0x298>
     f06:	a35ff0ef          	jal	93a <print_str>
     f0a:	4601                	li	a2,0
     f0c:	45a1                	li	a1,8
     f0e:	8526                	mv	a0,s1
     f10:	3f2d                	jal	e4a <stats_print_dec>
     f12:	6531                	lui	a0,0xc
     f14:	28c50513          	addi	a0,a0,652 # c28c <__modsi3+0x2b0>
     f18:	a23ff0ef          	jal	93a <print_str>
     f1c:	85a6                	mv	a1,s1
     f1e:	8522                	mv	a0,s0
     f20:	0400b0ef          	jal	bf60 <__hidden___udivsi3>
     f24:	4601                	li	a2,0
     f26:	4581                	li	a1,0
     f28:	370d                	jal	e4a <stats_print_dec>
     f2a:	6531                	lui	a0,0xc
     f2c:	29450513          	addi	a0,a0,660 # c294 <__modsi3+0x2b8>
     f30:	a0bff0ef          	jal	93a <print_str>
     f34:	00141513          	slli	a0,s0,0x1
     f38:	9522                	add	a0,a0,s0
     f3a:	050e                	slli	a0,a0,0x3
     f3c:	9522                	add	a0,a0,s0
     f3e:	85a6                	mv	a1,s1
     f40:	050a                	slli	a0,a0,0x2
     f42:	01e0b0ef          	jal	bf60 <__hidden___udivsi3>
     f46:	06400593          	li	a1,100
     f4a:	05e0b0ef          	jal	bfa8 <__umodsi3>
     f4e:	4605                	li	a2,1
     f50:	4589                	li	a1,2
     f52:	3de5                	jal	e4a <stats_print_dec>
     f54:	4422                	lw	s0,8(sp)
     f56:	40b2                	lw	ra,12(sp)
     f58:	4492                	lw	s1,4(sp)
     f5a:	6531                	lui	a0,0xc
     f5c:	03c50513          	addi	a0,a0,60 # c03c <__modsi3+0x60>
     f60:	0141                	addi	sp,sp,16
     f62:	9d9ff06f          	j	93a <print_str>

00000f66 <test_case0>:
test_case0():
     f66:	00251793          	slli	a5,a0,0x2
     f6a:	1101                	addi	sp,sp,-32
     f6c:	07bd                	addi	a5,a5,15 # 8000000f <end+0x7fff2fc1>
     f6e:	cc22                	sw	s0,24(sp)
     f70:	ca26                	sw	s1,20(sp)
     f72:	c84a                	sw	s2,16(sp)
     f74:	c64e                	sw	s3,12(sp)
     f76:	c452                	sw	s4,8(sp)
     f78:	9bc1                	andi	a5,a5,-16
     f7a:	ce06                	sw	ra,28(sp)
     f7c:	1000                	addi	s0,sp,32
     f7e:	01f55993          	srli	s3,a0,0x1f
     f82:	99aa                	add	s3,s3,a0
     f84:	40f10133          	sub	sp,sp,a5
     f88:	84aa                	mv	s1,a0
     f8a:	6531                	lui	a0,0xc
     f8c:	890a                	mv	s2,sp
     f8e:	29850513          	addi	a0,a0,664 # c298 <__modsi3+0x2bc>
     f92:	40f10133          	sub	sp,sp,a5
     f96:	9a5ff0ef          	jal	93a <print_str>
     f9a:	4019d993          	srai	s3,s3,0x1
     f9e:	8a0a                	mv	s4,sp
     fa0:	4781                	li	a5,0
     fa2:	0497c163          	blt	a5,s1,fe4 <test_case0+0x7e>
     fa6:	4781                	li	a5,0
     fa8:	0497c463          	blt	a5,s1,ff0 <test_case0+0x8a>
     fac:	200007b7          	lui	a5,0x20000
     fb0:	4705                	li	a4,1
     fb2:	c398                	sw	a4,0(a5)
     fb4:	87ca                	mv	a5,s2
     fb6:	4701                	li	a4,0
     fb8:	04974563          	blt	a4,s1,1002 <test_case0+0x9c>
     fbc:	200007b7          	lui	a5,0x20000
     fc0:	4709                	li	a4,2
     fc2:	6531                	lui	a0,0xc
     fc4:	2b050513          	addi	a0,a0,688 # c2b0 <__modsi3+0x2d4>
     fc8:	c398                	sw	a4,0(a5)
     fca:	971ff0ef          	jal	93a <print_str>
     fce:	fe040113          	addi	sp,s0,-32 # 7fffffe0 <end+0x7fff2f92>
     fd2:	40f2                	lw	ra,28(sp)
     fd4:	4462                	lw	s0,24(sp)
     fd6:	44d2                	lw	s1,20(sp)
     fd8:	4942                	lw	s2,16(sp)
     fda:	49b2                	lw	s3,12(sp)
     fdc:	4a22                	lw	s4,8(sp)
     fde:	4505                	li	a0,1
     fe0:	6105                	addi	sp,sp,32
     fe2:	8082                	ret
     fe4:	00279713          	slli	a4,a5,0x2
     fe8:	9752                	add	a4,a4,s4
     fea:	c31c                	sw	a5,0(a4)
     fec:	0785                	addi	a5,a5,1 # 20000001 <end+0x1fff2fb3>
     fee:	bf55                	j	fa2 <test_case0+0x3c>
     ff0:	00279713          	slli	a4,a5,0x2
     ff4:	00e906b3          	add	a3,s2,a4
     ff8:	9752                	add	a4,a4,s4
     ffa:	4318                	lw	a4,0(a4)
     ffc:	0785                	addi	a5,a5,1
     ffe:	c298                	sw	a4,0(a3)
    1000:	b765                	j	fa8 <test_case0+0x42>
    1002:	4394                	lw	a3,0(a5)
    1004:	0705                	addi	a4,a4,1
    1006:	96ce                	add	a3,a3,s3
    1008:	c394                	sw	a3,0(a5)
    100a:	0791                	addi	a5,a5,4
    100c:	b775                	j	fb8 <test_case0+0x52>

0000100e <test_case1>:
test_case1():
    100e:	00251793          	slli	a5,a0,0x2
    1012:	1141                	addi	sp,sp,-16
    1014:	07bd                	addi	a5,a5,15
    1016:	c422                	sw	s0,8(sp)
    1018:	c226                	sw	s1,4(sp)
    101a:	c04a                	sw	s2,0(sp)
    101c:	c606                	sw	ra,12(sp)
    101e:	0800                	addi	s0,sp,16
    1020:	9bc1                	andi	a5,a5,-16
    1022:	892a                	mv	s2,a0
    1024:	6531                	lui	a0,0xc
    1026:	2c850513          	addi	a0,a0,712 # c2c8 <__modsi3+0x2ec>
    102a:	40f10133          	sub	sp,sp,a5
    102e:	90dff0ef          	jal	93a <print_str>
    1032:	848a                	mv	s1,sp
    1034:	4781                	li	a5,0
    1036:	0327cc63          	blt	a5,s2,106e <test_case1+0x60>
    103a:	200007b7          	lui	a5,0x20000
    103e:	4705                	li	a4,1
    1040:	c398                	sw	a4,0(a5)
    1042:	4681                	li	a3,0
    1044:	87a6                	mv	a5,s1
    1046:	0326ca63          	blt	a3,s2,107a <test_case1+0x6c>
    104a:	200007b7          	lui	a5,0x20000
    104e:	4709                	li	a4,2
    1050:	6531                	lui	a0,0xc
    1052:	2e050513          	addi	a0,a0,736 # c2e0 <__modsi3+0x304>
    1056:	c398                	sw	a4,0(a5)
    1058:	8e3ff0ef          	jal	93a <print_str>
    105c:	ff040113          	addi	sp,s0,-16
    1060:	40b2                	lw	ra,12(sp)
    1062:	4422                	lw	s0,8(sp)
    1064:	4492                	lw	s1,4(sp)
    1066:	4902                	lw	s2,0(sp)
    1068:	4505                	li	a0,1
    106a:	0141                	addi	sp,sp,16
    106c:	8082                	ret
    106e:	00279713          	slli	a4,a5,0x2
    1072:	9726                	add	a4,a4,s1
    1074:	c31c                	sw	a5,0(a4)
    1076:	0785                	addi	a5,a5,1 # 20000001 <end+0x1fff2fb3>
    1078:	bf7d                	j	1036 <test_case1+0x28>
    107a:	4398                	lw	a4,0(a5)
    107c:	0685                	addi	a3,a3,1
    107e:	01071613          	slli	a2,a4,0x10
    1082:	8341                	srli	a4,a4,0x10
    1084:	8f51                	or	a4,a4,a2
    1086:	c398                	sw	a4,0(a5)
    1088:	0791                	addi	a5,a5,4
    108a:	bf75                	j	1046 <test_case1+0x38>

0000108c <test_case2>:
test_case2():
    108c:	00251793          	slli	a5,a0,0x2
    1090:	1141                	addi	sp,sp,-16
    1092:	07bd                	addi	a5,a5,15
    1094:	c422                	sw	s0,8(sp)
    1096:	c226                	sw	s1,4(sp)
    1098:	c04a                	sw	s2,0(sp)
    109a:	c606                	sw	ra,12(sp)
    109c:	0800                	addi	s0,sp,16
    109e:	9bc1                	andi	a5,a5,-16
    10a0:	892a                	mv	s2,a0
    10a2:	6531                	lui	a0,0xc
    10a4:	2f850513          	addi	a0,a0,760 # c2f8 <__modsi3+0x31c>
    10a8:	40f10133          	sub	sp,sp,a5
    10ac:	88fff0ef          	jal	93a <print_str>
    10b0:	848a                	mv	s1,sp
    10b2:	4781                	li	a5,0
    10b4:	0527c163          	blt	a5,s2,10f6 <test_case2+0x6a>
    10b8:	200007b7          	lui	a5,0x20000
    10bc:	4705                	li	a4,1
    10be:	55560637          	lui	a2,0x55560
    10c2:	c398                	sw	a4,0(a5)
    10c4:	4681                	li	a3,0
    10c6:	87a6                	mv	a5,s1
    10c8:	0c800593          	li	a1,200
    10cc:	167d                	addi	a2,a2,-1 # 5555ffff <end+0x55552fb1>
    10ce:	0326ca63          	blt	a3,s2,1102 <test_case2+0x76>
    10d2:	200007b7          	lui	a5,0x20000
    10d6:	4709                	li	a4,2
    10d8:	6531                	lui	a0,0xc
    10da:	31050513          	addi	a0,a0,784 # c310 <__modsi3+0x334>
    10de:	c398                	sw	a4,0(a5)
    10e0:	85bff0ef          	jal	93a <print_str>
    10e4:	ff040113          	addi	sp,s0,-16
    10e8:	40b2                	lw	ra,12(sp)
    10ea:	4422                	lw	s0,8(sp)
    10ec:	4492                	lw	s1,4(sp)
    10ee:	4902                	lw	s2,0(sp)
    10f0:	4505                	li	a0,1
    10f2:	0141                	addi	sp,sp,16
    10f4:	8082                	ret
    10f6:	00279713          	slli	a4,a5,0x2
    10fa:	9726                	add	a4,a4,s1
    10fc:	c31c                	sw	a5,0(a4)
    10fe:	0785                	addi	a5,a5,1 # 20000001 <end+0x1fff2fb3>
    1100:	bf55                	j	10b4 <test_case2+0x28>
    1102:	4398                	lw	a4,0(a5)
    1104:	06470713          	addi	a4,a4,100
    1108:	00e5f363          	bgeu	a1,a4,110e <test_case2+0x82>
    110c:	8732                	mv	a4,a2
    110e:	c398                	sw	a4,0(a5)
    1110:	0685                	addi	a3,a3,1
    1112:	0791                	addi	a5,a5,4
    1114:	bf6d                	j	10ce <test_case2+0x42>

00001116 <test_case3>:
test_case3():
    1116:	00251793          	slli	a5,a0,0x2
    111a:	1101                	addi	sp,sp,-32
    111c:	07bd                	addi	a5,a5,15
    111e:	cc22                	sw	s0,24(sp)
    1120:	ca26                	sw	s1,20(sp)
    1122:	c84a                	sw	s2,16(sp)
    1124:	c64e                	sw	s3,12(sp)
    1126:	c452                	sw	s4,8(sp)
    1128:	ce06                	sw	ra,28(sp)
    112a:	1000                	addi	s0,sp,32
    112c:	9bc1                	andi	a5,a5,-16
    112e:	84aa                	mv	s1,a0
    1130:	40f10133          	sub	sp,sp,a5
    1134:	00451793          	slli	a5,a0,0x4
    1138:	6531                	lui	a0,0xc
    113a:	898a                	mv	s3,sp
    113c:	32850513          	addi	a0,a0,808 # c328 <__modsi3+0x34c>
    1140:	40f10133          	sub	sp,sp,a5
    1144:	8a0a                	mv	s4,sp
    1146:	ff4ff0ef          	jal	93a <print_str>
    114a:	4901                	li	s2,0
    114c:	04994063          	blt	s2,s1,118c <test_case3+0x76>
    1150:	200007b7          	lui	a5,0x20000
    1154:	4705                	li	a4,1
    1156:	c398                	sw	a4,0(a5)
    1158:	4681                	li	a3,0
    115a:	4781                	li	a5,0
    115c:	4701                	li	a4,0
    115e:	4505                	li	a0,1
    1160:	0496c263          	blt	a3,s1,11a4 <test_case3+0x8e>
    1164:	200007b7          	lui	a5,0x20000
    1168:	4709                	li	a4,2
    116a:	6531                	lui	a0,0xc
    116c:	34050513          	addi	a0,a0,832 # c340 <__modsi3+0x364>
    1170:	c398                	sw	a4,0(a5)
    1172:	fc8ff0ef          	jal	93a <print_str>
    1176:	fe040113          	addi	sp,s0,-32
    117a:	40f2                	lw	ra,28(sp)
    117c:	4462                	lw	s0,24(sp)
    117e:	44d2                	lw	s1,20(sp)
    1180:	4942                	lw	s2,16(sp)
    1182:	49b2                	lw	s3,12(sp)
    1184:	4a22                	lw	s4,8(sp)
    1186:	4505                	li	a0,1
    1188:	6105                	addi	sp,sp,32
    118a:	8082                	ret
    118c:	458d                	li	a1,3
    118e:	854a                	mv	a0,s2
    1190:	64d0a0ef          	jal	bfdc <__modsi3>
    1194:	c111                	beqz	a0,1198 <test_case3+0x82>
    1196:	854a                	mv	a0,s2
    1198:	00291793          	slli	a5,s2,0x2
    119c:	97ce                	add	a5,a5,s3
    119e:	c388                	sw	a0,0(a5)
    11a0:	0905                	addi	s2,s2,1
    11a2:	b76d                	j	114c <test_case3+0x36>
    11a4:	00269613          	slli	a2,a3,0x2
    11a8:	964e                	add	a2,a2,s3
    11aa:	420c                	lw	a1,0(a2)
    11ac:	e581                	bnez	a1,11b4 <test_case3+0x9e>
    11ae:	0705                	addi	a4,a4,1
    11b0:	0685                	addi	a3,a3,1
    11b2:	b77d                	j	1160 <test_case3+0x4a>
    11b4:	cb01                	beqz	a4,11c4 <test_case3+0xae>
    11b6:	00279613          	slli	a2,a5,0x2
    11ba:	9652                	add	a2,a2,s4
    11bc:	c218                	sw	a4,0(a2)
    11be:	00062223          	sw	zero,4(a2)
    11c2:	0789                	addi	a5,a5,2 # 20000002 <end+0x1fff2fb4>
    11c4:	00279713          	slli	a4,a5,0x2
    11c8:	9752                	add	a4,a4,s4
    11ca:	c308                	sw	a0,0(a4)
    11cc:	c34c                	sw	a1,4(a4)
    11ce:	0789                	addi	a5,a5,2
    11d0:	4701                	li	a4,0
    11d2:	bff9                	j	11b0 <test_case3+0x9a>

000011d4 <test_case4>:
test_case4():
    11d4:	6531                	lui	a0,0xc
    11d6:	1141                	addi	sp,sp,-16
    11d8:	35850513          	addi	a0,a0,856 # c358 <__modsi3+0x37c>
    11dc:	c606                	sw	ra,12(sp)
    11de:	f5cff0ef          	jal	93a <print_str>
    11e2:	200007b7          	lui	a5,0x20000
    11e6:	4705                	li	a4,1
    11e8:	c398                	sw	a4,0(a5)
    11ea:	6531                	lui	a0,0xc
    11ec:	4709                	li	a4,2
    11ee:	37050513          	addi	a0,a0,880 # c370 <__modsi3+0x394>
    11f2:	c398                	sw	a4,0(a5)
    11f4:	f46ff0ef          	jal	93a <print_str>
    11f8:	40b2                	lw	ra,12(sp)
    11fa:	4505                	li	a0,1
    11fc:	0141                	addi	sp,sp,16
    11fe:	8082                	ret

00001200 <test_case5>:
test_case5():
    1200:	00251793          	slli	a5,a0,0x2
    1204:	1101                	addi	sp,sp,-32
    1206:	07bd                	addi	a5,a5,15 # 2000000f <end+0x1fff2fc1>
    1208:	cc22                	sw	s0,24(sp)
    120a:	ca26                	sw	s1,20(sp)
    120c:	c84a                	sw	s2,16(sp)
    120e:	c64e                	sw	s3,12(sp)
    1210:	9bc1                	andi	a5,a5,-16
    1212:	ce06                	sw	ra,28(sp)
    1214:	1000                	addi	s0,sp,32
    1216:	84aa                	mv	s1,a0
    1218:	40f10133          	sub	sp,sp,a5
    121c:	6531                	lui	a0,0xc
    121e:	890a                	mv	s2,sp
    1220:	38850513          	addi	a0,a0,904 # c388 <__modsi3+0x3ac>
    1224:	40f10133          	sub	sp,sp,a5
    1228:	f12ff0ef          	jal	93a <print_str>
    122c:	898a                	mv	s3,sp
    122e:	4014d613          	srai	a2,s1,0x1
    1232:	874a                	mv	a4,s2
    1234:	4781                	li	a5,0
    1236:	458d                	li	a1,3
    1238:	4511                	li	a0,4
    123a:	4815                	li	a6,5
    123c:	0497c663          	blt	a5,s1,1288 <test_case5+0x88>
    1240:	200007b7          	lui	a5,0x20000
    1244:	4705                	li	a4,1
    1246:	c398                	sw	a4,0(a5)
    1248:	4681                	li	a3,0
    124a:	4781                	li	a5,0
    124c:	4595                	li	a1,5
    124e:	4511                	li	a0,4
    1250:	00279713          	slli	a4,a5,0x2
    1254:	974a                	add	a4,a4,s2
    1256:	4318                	lw	a4,0(a4)
    1258:	04b71a63          	bne	a4,a1,12ac <test_case5+0xac>
    125c:	0785                	addi	a5,a5,1 # 20000001 <end+0x1fff2fb3>
    125e:	fe97c9e3          	blt	a5,s1,1250 <test_case5+0x50>
    1262:	200007b7          	lui	a5,0x20000
    1266:	4709                	li	a4,2
    1268:	6531                	lui	a0,0xc
    126a:	3a050513          	addi	a0,a0,928 # c3a0 <__modsi3+0x3c4>
    126e:	c398                	sw	a4,0(a5)
    1270:	ecaff0ef          	jal	93a <print_str>
    1274:	fe040113          	addi	sp,s0,-32
    1278:	40f2                	lw	ra,28(sp)
    127a:	4462                	lw	s0,24(sp)
    127c:	44d2                	lw	s1,20(sp)
    127e:	4942                	lw	s2,16(sp)
    1280:	49b2                	lw	s3,12(sp)
    1282:	4505                	li	a0,1
    1284:	6105                	addi	sp,sp,32
    1286:	8082                	ret
    1288:	00b79c63          	bne	a5,a1,12a0 <test_case5+0xa0>
    128c:	01092623          	sw	a6,12(s2)
    1290:	00279693          	slli	a3,a5,0x2
    1294:	96ce                	add	a3,a3,s3
    1296:	0006a023          	sw	zero,0(a3)
    129a:	0785                	addi	a5,a5,1 # 20000001 <end+0x1fff2fb3>
    129c:	0711                	addi	a4,a4,4
    129e:	bf79                	j	123c <test_case5+0x3c>
    12a0:	00f61463          	bne	a2,a5,12a8 <test_case5+0xa8>
    12a4:	c308                	sw	a0,0(a4)
    12a6:	b7ed                	j	1290 <test_case5+0x90>
    12a8:	c31c                	sw	a5,0(a4)
    12aa:	b7dd                	j	1290 <test_case5+0x90>
    12ac:	faa70be3          	beq	a4,a0,1262 <test_case5+0x62>
    12b0:	00269613          	slli	a2,a3,0x2
    12b4:	964e                	add	a2,a2,s3
    12b6:	0729                	addi	a4,a4,10
    12b8:	0785                	addi	a5,a5,1
    12ba:	c218                	sw	a4,0(a2)
    12bc:	0685                	addi	a3,a3,1
    12be:	b745                	j	125e <test_case5+0x5e>

000012c0 <test_case6>:
test_case6():
    12c0:	6531                	lui	a0,0xc
    12c2:	1141                	addi	sp,sp,-16
    12c4:	3b850513          	addi	a0,a0,952 # c3b8 <__modsi3+0x3dc>
    12c8:	c606                	sw	ra,12(sp)
    12ca:	e70ff0ef          	jal	93a <print_str>
    12ce:	200007b7          	lui	a5,0x20000
    12d2:	4705                	li	a4,1
    12d4:	c398                	sw	a4,0(a5)
    12d6:	6531                	lui	a0,0xc
    12d8:	4709                	li	a4,2
    12da:	3d050513          	addi	a0,a0,976 # c3d0 <__modsi3+0x3f4>
    12de:	c398                	sw	a4,0(a5)
    12e0:	e5aff0ef          	jal	93a <print_str>
    12e4:	40b2                	lw	ra,12(sp)
    12e6:	4505                	li	a0,1
    12e8:	0141                	addi	sp,sp,16
    12ea:	8082                	ret

000012ec <test_case7>:
test_case7():
    12ec:	00251793          	slli	a5,a0,0x2
    12f0:	1101                	addi	sp,sp,-32
    12f2:	07bd                	addi	a5,a5,15 # 2000000f <end+0x1fff2fc1>
    12f4:	cc22                	sw	s0,24(sp)
    12f6:	ca26                	sw	s1,20(sp)
    12f8:	c84a                	sw	s2,16(sp)
    12fa:	c64e                	sw	s3,12(sp)
    12fc:	9bc1                	andi	a5,a5,-16
    12fe:	ce06                	sw	ra,28(sp)
    1300:	1000                	addi	s0,sp,32
    1302:	84aa                	mv	s1,a0
    1304:	40f10133          	sub	sp,sp,a5
    1308:	6531                	lui	a0,0xc
    130a:	890a                	mv	s2,sp
    130c:	3e850513          	addi	a0,a0,1000 # c3e8 <__modsi3+0x40c>
    1310:	40f10133          	sub	sp,sp,a5
    1314:	e26ff0ef          	jal	93a <print_str>
    1318:	898a                	mv	s3,sp
    131a:	4781                	li	a5,0
    131c:	0297cc63          	blt	a5,s1,1354 <test_case7+0x68>
    1320:	4705                	li	a4,1
    1322:	200007b7          	lui	a5,0x20000
    1326:	c398                	sw	a4,0(a5)
    1328:	4701                	li	a4,0
    132a:	04974163          	blt	a4,s1,136c <test_case7+0x80>
    132e:	200007b7          	lui	a5,0x20000
    1332:	4709                	li	a4,2
    1334:	6531                	lui	a0,0xc
    1336:	40050513          	addi	a0,a0,1024 # c400 <__modsi3+0x424>
    133a:	c398                	sw	a4,0(a5)
    133c:	dfeff0ef          	jal	93a <print_str>
    1340:	fe040113          	addi	sp,s0,-32
    1344:	40f2                	lw	ra,28(sp)
    1346:	4462                	lw	s0,24(sp)
    1348:	44d2                	lw	s1,20(sp)
    134a:	4942                	lw	s2,16(sp)
    134c:	49b2                	lw	s3,12(sp)
    134e:	4505                	li	a0,1
    1350:	6105                	addi	sp,sp,32
    1352:	8082                	ret
    1354:	00279713          	slli	a4,a5,0x2
    1358:	00e906b3          	add	a3,s2,a4
    135c:	0077f613          	andi	a2,a5,7
    1360:	974e                	add	a4,a4,s3
    1362:	c290                	sw	a2,0(a3)
    1364:	00072023          	sw	zero,0(a4)
    1368:	0785                	addi	a5,a5,1 # 20000001 <end+0x1fff2fb3>
    136a:	bf4d                	j	131c <test_case7+0x30>
    136c:	00271793          	slli	a5,a4,0x2
    1370:	97ca                	add	a5,a5,s2
    1372:	439c                	lw	a5,0(a5)
    1374:	0007c963          	bltz	a5,1386 <test_case7+0x9a>
    1378:	0097d763          	bge	a5,s1,1386 <test_case7+0x9a>
    137c:	078a                	slli	a5,a5,0x2
    137e:	97ce                	add	a5,a5,s3
    1380:	4394                	lw	a3,0(a5)
    1382:	0685                	addi	a3,a3,1
    1384:	c394                	sw	a3,0(a5)
    1386:	0705                	addi	a4,a4,1
    1388:	b74d                	j	132a <test_case7+0x3e>

0000138a <test_abc>:
test_abc():
    138a:	1141                	addi	sp,sp,-16
    138c:	c226                	sw	s1,4(sp)
    138e:	64b1                	lui	s1,0xc
    1390:	41848513          	addi	a0,s1,1048 # c418 <__modsi3+0x43c>
    1394:	c606                	sw	ra,12(sp)
    1396:	c422                	sw	s0,8(sp)
    1398:	da2ff0ef          	jal	93a <print_str>
    139c:	6531                	lui	a0,0xc
    139e:	44050513          	addi	a0,a0,1088 # c440 <__modsi3+0x464>
    13a2:	d98ff0ef          	jal	93a <print_str>
    13a6:	6431                	lui	s0,0xc
    13a8:	46840513          	addi	a0,s0,1128 # c468 <__modsi3+0x48c>
    13ac:	d8eff0ef          	jal	93a <print_str>
    13b0:	4581                	li	a1,0
    13b2:	4529                	li	a0,10
    13b4:	3e4d                	jal	f66 <test_case0>
    13b6:	4581                	li	a1,0
    13b8:	4529                	li	a0,10
    13ba:	3991                	jal	100e <test_case1>
    13bc:	4581                	li	a1,0
    13be:	4529                	li	a0,10
    13c0:	31f1                	jal	108c <test_case2>
    13c2:	4581                	li	a1,0
    13c4:	4529                	li	a0,10
    13c6:	3b81                	jal	1116 <test_case3>
    13c8:	4581                	li	a1,0
    13ca:	4529                	li	a0,10
    13cc:	3521                	jal	11d4 <test_case4>
    13ce:	4581                	li	a1,0
    13d0:	4529                	li	a0,10
    13d2:	353d                	jal	1200 <test_case5>
    13d4:	4581                	li	a1,0
    13d6:	4529                	li	a0,10
    13d8:	35e5                	jal	12c0 <test_case6>
    13da:	4581                	li	a1,0
    13dc:	4529                	li	a0,10
    13de:	3739                	jal	12ec <test_case7>
    13e0:	41848513          	addi	a0,s1,1048
    13e4:	d56ff0ef          	jal	93a <print_str>
    13e8:	6531                	lui	a0,0xc
    13ea:	49050513          	addi	a0,a0,1168 # c490 <__modsi3+0x4b4>
    13ee:	d4cff0ef          	jal	93a <print_str>
    13f2:	46840513          	addi	a0,s0,1128
    13f6:	4422                	lw	s0,8(sp)
    13f8:	40b2                	lw	ra,12(sp)
    13fa:	4492                	lw	s1,4(sp)
    13fc:	0141                	addi	sp,sp,16
    13fe:	d3cff06f          	j	93a <print_str>
	...

00001404 <addi>:
addi():
    1404:	00001537          	lui	a0,0x1
    1408:	42450513          	addi	a0,a0,1060 # 1424 <.test_name>
    140c:	10000637          	lui	a2,0x10000

00001410 <.prname_next>:
.prname_next():
    1410:	00050583          	lb	a1,0(a0)
    1414:	00058c63          	beqz	a1,142c <.prname_done>
    1418:	00b62023          	sw	a1,0(a2) # 10000000 <end+0xfff2fb2>
    141c:	00150513          	addi	a0,a0,1
    1420:	ff1ff06f          	j	1410 <.prname_next>

00001424 <.test_name>:
.test_name():
    1424:	6461                	.insn	2, 0x6461
    1426:	6964                	.insn	2, 0x6964
    1428:	0000                	.insn	2, 0x
	...

0000142c <.prname_done>:
.prname_done():
    142c:	02e00593          	li	a1,46
    1430:	00b62023          	sw	a1,0(a2)
    1434:	00b62023          	sw	a1,0(a2)

00001438 <test_2>:
test_2():
    1438:	00000093          	li	ra,0
    143c:	00008193          	mv	gp,ra
    1440:	00000e93          	li	t4,0
    1444:	00200e13          	li	t3,2
    1448:	27d19c63          	bne	gp,t4,16c0 <fail>

0000144c <test_3>:
test_3():
    144c:	00100093          	li	ra,1
    1450:	00108193          	addi	gp,ra,1
    1454:	00200e93          	li	t4,2
    1458:	00300e13          	li	t3,3
    145c:	27d19263          	bne	gp,t4,16c0 <fail>

00001460 <test_4>:
test_4():
    1460:	00300093          	li	ra,3
    1464:	00708193          	addi	gp,ra,7
    1468:	00a00e93          	li	t4,10
    146c:	00400e13          	li	t3,4
    1470:	25d19863          	bne	gp,t4,16c0 <fail>

00001474 <test_5>:
test_5():
    1474:	00000093          	li	ra,0
    1478:	80008193          	addi	gp,ra,-2048
    147c:	80000e93          	li	t4,-2048
    1480:	00500e13          	li	t3,5
    1484:	23d19e63          	bne	gp,t4,16c0 <fail>

00001488 <test_6>:
test_6():
    1488:	800000b7          	lui	ra,0x80000
    148c:	00008193          	mv	gp,ra
    1490:	80000eb7          	lui	t4,0x80000
    1494:	00600e13          	li	t3,6
    1498:	23d19463          	bne	gp,t4,16c0 <fail>

0000149c <test_7>:
test_7():
    149c:	800000b7          	lui	ra,0x80000
    14a0:	80008193          	addi	gp,ra,-2048 # 7ffff800 <end+0x7fff27b2>
    14a4:	80000eb7          	lui	t4,0x80000
    14a8:	800e8e93          	addi	t4,t4,-2048 # 7ffff800 <end+0x7fff27b2>
    14ac:	00700e13          	li	t3,7
    14b0:	21d19863          	bne	gp,t4,16c0 <fail>

000014b4 <test_8>:
test_8():
    14b4:	00000093          	li	ra,0
    14b8:	7ff08193          	addi	gp,ra,2047
    14bc:	7ff00e93          	li	t4,2047
    14c0:	00800e13          	li	t3,8
    14c4:	1fd19e63          	bne	gp,t4,16c0 <fail>

000014c8 <test_9>:
test_9():
    14c8:	800000b7          	lui	ra,0x80000
    14cc:	fff08093          	addi	ra,ra,-1 # 7fffffff <end+0x7fff2fb1>
    14d0:	00008193          	mv	gp,ra
    14d4:	80000eb7          	lui	t4,0x80000
    14d8:	fffe8e93          	addi	t4,t4,-1 # 7fffffff <end+0x7fff2fb1>
    14dc:	00900e13          	li	t3,9
    14e0:	1fd19063          	bne	gp,t4,16c0 <fail>

000014e4 <test_10>:
test_10():
    14e4:	800000b7          	lui	ra,0x80000
    14e8:	fff08093          	addi	ra,ra,-1 # 7fffffff <end+0x7fff2fb1>
    14ec:	7ff08193          	addi	gp,ra,2047
    14f0:	80000eb7          	lui	t4,0x80000
    14f4:	7fee8e93          	addi	t4,t4,2046 # 800007fe <end+0x7fff37b0>
    14f8:	00a00e13          	li	t3,10
    14fc:	1dd19263          	bne	gp,t4,16c0 <fail>

00001500 <test_11>:
test_11():
    1500:	800000b7          	lui	ra,0x80000
    1504:	7ff08193          	addi	gp,ra,2047 # 800007ff <end+0x7fff37b1>
    1508:	80000eb7          	lui	t4,0x80000
    150c:	7ffe8e93          	addi	t4,t4,2047 # 800007ff <end+0x7fff37b1>
    1510:	00b00e13          	li	t3,11
    1514:	1bd19663          	bne	gp,t4,16c0 <fail>

00001518 <test_12>:
test_12():
    1518:	800000b7          	lui	ra,0x80000
    151c:	fff08093          	addi	ra,ra,-1 # 7fffffff <end+0x7fff2fb1>
    1520:	80008193          	addi	gp,ra,-2048
    1524:	7ffffeb7          	lui	t4,0x7ffff
    1528:	7ffe8e93          	addi	t4,t4,2047 # 7ffff7ff <end+0x7fff27b1>
    152c:	00c00e13          	li	t3,12
    1530:	19d19863          	bne	gp,t4,16c0 <fail>

00001534 <test_13>:
test_13():
    1534:	00000093          	li	ra,0
    1538:	fff08193          	addi	gp,ra,-1
    153c:	fff00e93          	li	t4,-1
    1540:	00d00e13          	li	t3,13
    1544:	17d19e63          	bne	gp,t4,16c0 <fail>

00001548 <test_14>:
test_14():
    1548:	fff00093          	li	ra,-1
    154c:	00108193          	addi	gp,ra,1
    1550:	00000e93          	li	t4,0
    1554:	00e00e13          	li	t3,14
    1558:	17d19463          	bne	gp,t4,16c0 <fail>

0000155c <test_15>:
test_15():
    155c:	fff00093          	li	ra,-1
    1560:	fff08193          	addi	gp,ra,-1
    1564:	ffe00e93          	li	t4,-2
    1568:	00f00e13          	li	t3,15
    156c:	15d19a63          	bne	gp,t4,16c0 <fail>

00001570 <test_16>:
test_16():
    1570:	800000b7          	lui	ra,0x80000
    1574:	fff08093          	addi	ra,ra,-1 # 7fffffff <end+0x7fff2fb1>
    1578:	00108193          	addi	gp,ra,1
    157c:	80000eb7          	lui	t4,0x80000
    1580:	01000e13          	li	t3,16
    1584:	13d19e63          	bne	gp,t4,16c0 <fail>

00001588 <test_17>:
test_17():
    1588:	00d00093          	li	ra,13
    158c:	00b08093          	addi	ra,ra,11
    1590:	01800e93          	li	t4,24
    1594:	01100e13          	li	t3,17
    1598:	13d09463          	bne	ra,t4,16c0 <fail>

0000159c <test_18>:
test_18():
    159c:	00000213          	li	tp,0
    15a0:	00d00093          	li	ra,13
    15a4:	00b08193          	addi	gp,ra,11
    15a8:	00018313          	mv	t1,gp
    15ac:	00120213          	addi	tp,tp,1 # 1 <reset_vec+0x1>
    15b0:	00200293          	li	t0,2
    15b4:	fe5216e3          	bne	tp,t0,15a0 <test_18+0x4>
    15b8:	01800e93          	li	t4,24
    15bc:	01200e13          	li	t3,18
    15c0:	11d31063          	bne	t1,t4,16c0 <fail>

000015c4 <test_19>:
test_19():
    15c4:	00000213          	li	tp,0
    15c8:	00d00093          	li	ra,13
    15cc:	00a08193          	addi	gp,ra,10
    15d0:	00000013          	nop
    15d4:	00018313          	mv	t1,gp
    15d8:	00120213          	addi	tp,tp,1 # 1 <reset_vec+0x1>
    15dc:	00200293          	li	t0,2
    15e0:	fe5214e3          	bne	tp,t0,15c8 <test_19+0x4>
    15e4:	01700e93          	li	t4,23
    15e8:	01300e13          	li	t3,19
    15ec:	0dd31a63          	bne	t1,t4,16c0 <fail>

000015f0 <test_20>:
test_20():
    15f0:	00000213          	li	tp,0
    15f4:	00d00093          	li	ra,13
    15f8:	00908193          	addi	gp,ra,9
    15fc:	00000013          	nop
    1600:	00000013          	nop
    1604:	00018313          	mv	t1,gp
    1608:	00120213          	addi	tp,tp,1 # 1 <reset_vec+0x1>
    160c:	00200293          	li	t0,2
    1610:	fe5212e3          	bne	tp,t0,15f4 <test_20+0x4>
    1614:	01600e93          	li	t4,22
    1618:	01400e13          	li	t3,20
    161c:	0bd31263          	bne	t1,t4,16c0 <fail>

00001620 <test_21>:
test_21():
    1620:	00000213          	li	tp,0
    1624:	00d00093          	li	ra,13
    1628:	00b08193          	addi	gp,ra,11
    162c:	00120213          	addi	tp,tp,1 # 1 <reset_vec+0x1>
    1630:	00200293          	li	t0,2
    1634:	fe5218e3          	bne	tp,t0,1624 <test_21+0x4>
    1638:	01800e93          	li	t4,24
    163c:	01500e13          	li	t3,21
    1640:	09d19063          	bne	gp,t4,16c0 <fail>

00001644 <test_22>:
test_22():
    1644:	00000213          	li	tp,0
    1648:	00d00093          	li	ra,13
    164c:	00000013          	nop
    1650:	00a08193          	addi	gp,ra,10
    1654:	00120213          	addi	tp,tp,1 # 1 <reset_vec+0x1>
    1658:	00200293          	li	t0,2
    165c:	fe5216e3          	bne	tp,t0,1648 <test_22+0x4>
    1660:	01700e93          	li	t4,23
    1664:	01600e13          	li	t3,22
    1668:	05d19c63          	bne	gp,t4,16c0 <fail>

0000166c <test_23>:
test_23():
    166c:	00000213          	li	tp,0
    1670:	00d00093          	li	ra,13
    1674:	00000013          	nop
    1678:	00000013          	nop
    167c:	00908193          	addi	gp,ra,9
    1680:	00120213          	addi	tp,tp,1 # 1 <reset_vec+0x1>
    1684:	00200293          	li	t0,2
    1688:	fe5214e3          	bne	tp,t0,1670 <test_23+0x4>
    168c:	01600e93          	li	t4,22
    1690:	01700e13          	li	t3,23
    1694:	03d19663          	bne	gp,t4,16c0 <fail>

00001698 <test_24>:
test_24():
    1698:	02000093          	li	ra,32
    169c:	02000e93          	li	t4,32
    16a0:	01800e13          	li	t3,24
    16a4:	01d09e63          	bne	ra,t4,16c0 <fail>

000016a8 <test_25>:
test_25():
    16a8:	02100093          	li	ra,33
    16ac:	03208013          	addi	zero,ra,50
    16b0:	00000e93          	li	t4,0
    16b4:	01900e13          	li	t3,25
    16b8:	01d01463          	bne	zero,t4,16c0 <fail>
    16bc:	03c01a63          	bne	zero,t3,16f0 <pass>

000016c0 <fail>:
fail():
    16c0:	10000537          	lui	a0,0x10000
    16c4:	04500593          	li	a1,69
    16c8:	05200613          	li	a2,82
    16cc:	04f00693          	li	a3,79
    16d0:	00a00713          	li	a4,10
    16d4:	00b52023          	sw	a1,0(a0) # 10000000 <end+0xfff2fb2>
    16d8:	00c52023          	sw	a2,0(a0)
    16dc:	00c52023          	sw	a2,0(a0)
    16e0:	00d52023          	sw	a3,0(a0)
    16e4:	00c52023          	sw	a2,0(a0)
    16e8:	00e52023          	sw	a4,0(a0)
    16ec:	00100073          	ebreak

000016f0 <pass>:
pass():
    16f0:	10000537          	lui	a0,0x10000
    16f4:	04f00593          	li	a1,79
    16f8:	04b00613          	li	a2,75
    16fc:	00a00693          	li	a3,10
    1700:	00b52023          	sw	a1,0(a0) # 10000000 <end+0xfff2fb2>
    1704:	00c52023          	sw	a2,0(a0)
    1708:	00d52023          	sw	a3,0(a0)
    170c:	dbbfe06f          	j	4c6 <add_ret>

00001710 <add>:
add():
    1710:	00001537          	lui	a0,0x1
    1714:	73050513          	addi	a0,a0,1840 # 1730 <.test_name>
    1718:	10000637          	lui	a2,0x10000

0000171c <.prname_next>:
.prname_next():
    171c:	00050583          	lb	a1,0(a0)
    1720:	00058a63          	beqz	a1,1734 <.prname_done>
    1724:	00b62023          	sw	a1,0(a2) # 10000000 <end+0xfff2fb2>
    1728:	00150513          	addi	a0,a0,1
    172c:	ff1ff06f          	j	171c <.prname_next>

00001730 <.test_name>:
.test_name():
    1730:	6461                	.insn	2, 0x6461
    1732:	0064                	.insn	2, 0x0064

00001734 <.prname_done>:
.prname_done():
    1734:	02e00593          	li	a1,46
    1738:	00b62023          	sw	a1,0(a2)
    173c:	00b62023          	sw	a1,0(a2)

00001740 <test_2>:
test_2():
    1740:	00000093          	li	ra,0
    1744:	00000113          	li	sp,0
    1748:	002081b3          	add	gp,ra,sp
    174c:	00000e93          	li	t4,0
    1750:	00200e13          	li	t3,2
    1754:	4dd19663          	bne	gp,t4,1c20 <fail>

00001758 <test_3>:
test_3():
    1758:	00100093          	li	ra,1
    175c:	00100113          	li	sp,1
    1760:	002081b3          	add	gp,ra,sp
    1764:	00200e93          	li	t4,2
    1768:	00300e13          	li	t3,3
    176c:	4bd19a63          	bne	gp,t4,1c20 <fail>

00001770 <test_4>:
test_4():
    1770:	00300093          	li	ra,3
    1774:	00700113          	li	sp,7
    1778:	002081b3          	add	gp,ra,sp
    177c:	00a00e93          	li	t4,10
    1780:	00400e13          	li	t3,4
    1784:	49d19e63          	bne	gp,t4,1c20 <fail>

00001788 <test_5>:
test_5():
    1788:	00000093          	li	ra,0
    178c:	ffff8137          	lui	sp,0xffff8
    1790:	002081b3          	add	gp,ra,sp
    1794:	ffff8eb7          	lui	t4,0xffff8
    1798:	00500e13          	li	t3,5
    179c:	49d19263          	bne	gp,t4,1c20 <fail>

000017a0 <test_6>:
test_6():
    17a0:	800000b7          	lui	ra,0x80000
    17a4:	00000113          	li	sp,0
    17a8:	002081b3          	add	gp,ra,sp
    17ac:	80000eb7          	lui	t4,0x80000
    17b0:	00600e13          	li	t3,6
    17b4:	47d19663          	bne	gp,t4,1c20 <fail>

000017b8 <test_7>:
test_7():
    17b8:	800000b7          	lui	ra,0x80000
    17bc:	ffff8137          	lui	sp,0xffff8
    17c0:	002081b3          	add	gp,ra,sp
    17c4:	7fff8eb7          	lui	t4,0x7fff8
    17c8:	00700e13          	li	t3,7
    17cc:	45d19a63          	bne	gp,t4,1c20 <fail>

000017d0 <test_8>:
test_8():
    17d0:	00000093          	li	ra,0
    17d4:	00008137          	lui	sp,0x8
    17d8:	fff10113          	addi	sp,sp,-1 # 7fff <test_38+0x13>
    17dc:	002081b3          	add	gp,ra,sp
    17e0:	00008eb7          	lui	t4,0x8
    17e4:	fffe8e93          	addi	t4,t4,-1 # 7fff <test_38+0x13>
    17e8:	00800e13          	li	t3,8
    17ec:	43d19a63          	bne	gp,t4,1c20 <fail>

000017f0 <test_9>:
test_9():
    17f0:	800000b7          	lui	ra,0x80000
    17f4:	fff08093          	addi	ra,ra,-1 # 7fffffff <end+0x7fff2fb1>
    17f8:	00000113          	li	sp,0
    17fc:	002081b3          	add	gp,ra,sp
    1800:	80000eb7          	lui	t4,0x80000
    1804:	fffe8e93          	addi	t4,t4,-1 # 7fffffff <end+0x7fff2fb1>
    1808:	00900e13          	li	t3,9
    180c:	41d19a63          	bne	gp,t4,1c20 <fail>

00001810 <test_10>:
test_10():
    1810:	800000b7          	lui	ra,0x80000
    1814:	fff08093          	addi	ra,ra,-1 # 7fffffff <end+0x7fff2fb1>
    1818:	00008137          	lui	sp,0x8
    181c:	fff10113          	addi	sp,sp,-1 # 7fff <test_38+0x13>
    1820:	002081b3          	add	gp,ra,sp
    1824:	80008eb7          	lui	t4,0x80008
    1828:	ffee8e93          	addi	t4,t4,-2 # 80007ffe <end+0x7fffafb0>
    182c:	00a00e13          	li	t3,10
    1830:	3fd19863          	bne	gp,t4,1c20 <fail>

00001834 <test_11>:
test_11():
    1834:	800000b7          	lui	ra,0x80000
    1838:	00008137          	lui	sp,0x8
    183c:	fff10113          	addi	sp,sp,-1 # 7fff <test_38+0x13>
    1840:	002081b3          	add	gp,ra,sp
    1844:	80008eb7          	lui	t4,0x80008
    1848:	fffe8e93          	addi	t4,t4,-1 # 80007fff <end+0x7fffafb1>
    184c:	00b00e13          	li	t3,11
    1850:	3dd19863          	bne	gp,t4,1c20 <fail>

00001854 <test_12>:
test_12():
    1854:	800000b7          	lui	ra,0x80000
    1858:	fff08093          	addi	ra,ra,-1 # 7fffffff <end+0x7fff2fb1>
    185c:	ffff8137          	lui	sp,0xffff8
    1860:	002081b3          	add	gp,ra,sp
    1864:	7fff8eb7          	lui	t4,0x7fff8
    1868:	fffe8e93          	addi	t4,t4,-1 # 7fff7fff <end+0x7ffeafb1>
    186c:	00c00e13          	li	t3,12
    1870:	3bd19863          	bne	gp,t4,1c20 <fail>

00001874 <test_13>:
test_13():
    1874:	00000093          	li	ra,0
    1878:	fff00113          	li	sp,-1
    187c:	002081b3          	add	gp,ra,sp
    1880:	fff00e93          	li	t4,-1
    1884:	00d00e13          	li	t3,13
    1888:	39d19c63          	bne	gp,t4,1c20 <fail>

0000188c <test_14>:
test_14():
    188c:	fff00093          	li	ra,-1
    1890:	00100113          	li	sp,1
    1894:	002081b3          	add	gp,ra,sp
    1898:	00000e93          	li	t4,0
    189c:	00e00e13          	li	t3,14
    18a0:	39d19063          	bne	gp,t4,1c20 <fail>

000018a4 <test_15>:
test_15():
    18a4:	fff00093          	li	ra,-1
    18a8:	fff00113          	li	sp,-1
    18ac:	002081b3          	add	gp,ra,sp
    18b0:	ffe00e93          	li	t4,-2
    18b4:	00f00e13          	li	t3,15
    18b8:	37d19463          	bne	gp,t4,1c20 <fail>

000018bc <test_16>:
test_16():
    18bc:	00100093          	li	ra,1
    18c0:	80000137          	lui	sp,0x80000
    18c4:	fff10113          	addi	sp,sp,-1 # 7fffffff <end+0x7fff2fb1>
    18c8:	002081b3          	add	gp,ra,sp
    18cc:	80000eb7          	lui	t4,0x80000
    18d0:	01000e13          	li	t3,16
    18d4:	35d19663          	bne	gp,t4,1c20 <fail>

000018d8 <test_17>:
test_17():
    18d8:	00d00093          	li	ra,13
    18dc:	00b00113          	li	sp,11
    18e0:	002080b3          	add	ra,ra,sp
    18e4:	01800e93          	li	t4,24
    18e8:	01100e13          	li	t3,17
    18ec:	33d09a63          	bne	ra,t4,1c20 <fail>

000018f0 <test_18>:
test_18():
    18f0:	00e00093          	li	ra,14
    18f4:	00b00113          	li	sp,11
    18f8:	00208133          	add	sp,ra,sp
    18fc:	01900e93          	li	t4,25
    1900:	01200e13          	li	t3,18
    1904:	31d11e63          	bne	sp,t4,1c20 <fail>

00001908 <test_19>:
test_19():
    1908:	00d00093          	li	ra,13
    190c:	001080b3          	add	ra,ra,ra
    1910:	01a00e93          	li	t4,26
    1914:	01300e13          	li	t3,19
    1918:	31d09463          	bne	ra,t4,1c20 <fail>

0000191c <test_20>:
test_20():
    191c:	00000213          	li	tp,0
    1920:	00d00093          	li	ra,13
    1924:	00b00113          	li	sp,11
    1928:	002081b3          	add	gp,ra,sp
    192c:	00018313          	mv	t1,gp
    1930:	00120213          	addi	tp,tp,1 # 1 <reset_vec+0x1>
    1934:	00200293          	li	t0,2
    1938:	fe5214e3          	bne	tp,t0,1920 <test_20+0x4>
    193c:	01800e93          	li	t4,24
    1940:	01400e13          	li	t3,20
    1944:	2dd31e63          	bne	t1,t4,1c20 <fail>

00001948 <test_21>:
test_21():
    1948:	00000213          	li	tp,0
    194c:	00e00093          	li	ra,14
    1950:	00b00113          	li	sp,11
    1954:	002081b3          	add	gp,ra,sp
    1958:	00000013          	nop
    195c:	00018313          	mv	t1,gp
    1960:	00120213          	addi	tp,tp,1 # 1 <reset_vec+0x1>
    1964:	00200293          	li	t0,2
    1968:	fe5212e3          	bne	tp,t0,194c <test_21+0x4>
    196c:	01900e93          	li	t4,25
    1970:	01500e13          	li	t3,21
    1974:	2bd31663          	bne	t1,t4,1c20 <fail>

00001978 <test_22>:
test_22():
    1978:	00000213          	li	tp,0
    197c:	00f00093          	li	ra,15
    1980:	00b00113          	li	sp,11
    1984:	002081b3          	add	gp,ra,sp
    1988:	00000013          	nop
    198c:	00000013          	nop
    1990:	00018313          	mv	t1,gp
    1994:	00120213          	addi	tp,tp,1 # 1 <reset_vec+0x1>
    1998:	00200293          	li	t0,2
    199c:	fe5210e3          	bne	tp,t0,197c <test_22+0x4>
    19a0:	01a00e93          	li	t4,26
    19a4:	01600e13          	li	t3,22
    19a8:	27d31c63          	bne	t1,t4,1c20 <fail>

000019ac <test_23>:
test_23():
    19ac:	00000213          	li	tp,0
    19b0:	00d00093          	li	ra,13
    19b4:	00b00113          	li	sp,11
    19b8:	002081b3          	add	gp,ra,sp
    19bc:	00120213          	addi	tp,tp,1 # 1 <reset_vec+0x1>
    19c0:	00200293          	li	t0,2
    19c4:	fe5216e3          	bne	tp,t0,19b0 <test_23+0x4>
    19c8:	01800e93          	li	t4,24
    19cc:	01700e13          	li	t3,23
    19d0:	25d19863          	bne	gp,t4,1c20 <fail>

000019d4 <test_24>:
test_24():
    19d4:	00000213          	li	tp,0
    19d8:	00e00093          	li	ra,14
    19dc:	00b00113          	li	sp,11
    19e0:	00000013          	nop
    19e4:	002081b3          	add	gp,ra,sp
    19e8:	00120213          	addi	tp,tp,1 # 1 <reset_vec+0x1>
    19ec:	00200293          	li	t0,2
    19f0:	fe5214e3          	bne	tp,t0,19d8 <test_24+0x4>
    19f4:	01900e93          	li	t4,25
    19f8:	01800e13          	li	t3,24
    19fc:	23d19263          	bne	gp,t4,1c20 <fail>

00001a00 <test_25>:
test_25():
    1a00:	00000213          	li	tp,0
    1a04:	00f00093          	li	ra,15
    1a08:	00b00113          	li	sp,11
    1a0c:	00000013          	nop
    1a10:	00000013          	nop
    1a14:	002081b3          	add	gp,ra,sp
    1a18:	00120213          	addi	tp,tp,1 # 1 <reset_vec+0x1>
    1a1c:	00200293          	li	t0,2
    1a20:	fe5212e3          	bne	tp,t0,1a04 <test_25+0x4>
    1a24:	01a00e93          	li	t4,26
    1a28:	01900e13          	li	t3,25
    1a2c:	1fd19a63          	bne	gp,t4,1c20 <fail>

00001a30 <test_26>:
test_26():
    1a30:	00000213          	li	tp,0
    1a34:	00d00093          	li	ra,13
    1a38:	00000013          	nop
    1a3c:	00b00113          	li	sp,11
    1a40:	002081b3          	add	gp,ra,sp
    1a44:	00120213          	addi	tp,tp,1 # 1 <reset_vec+0x1>
    1a48:	00200293          	li	t0,2
    1a4c:	fe5214e3          	bne	tp,t0,1a34 <test_26+0x4>
    1a50:	01800e93          	li	t4,24
    1a54:	01a00e13          	li	t3,26
    1a58:	1dd19463          	bne	gp,t4,1c20 <fail>

00001a5c <test_27>:
test_27():
    1a5c:	00000213          	li	tp,0
    1a60:	00e00093          	li	ra,14
    1a64:	00000013          	nop
    1a68:	00b00113          	li	sp,11
    1a6c:	00000013          	nop
    1a70:	002081b3          	add	gp,ra,sp
    1a74:	00120213          	addi	tp,tp,1 # 1 <reset_vec+0x1>
    1a78:	00200293          	li	t0,2
    1a7c:	fe5212e3          	bne	tp,t0,1a60 <test_27+0x4>
    1a80:	01900e93          	li	t4,25
    1a84:	01b00e13          	li	t3,27
    1a88:	19d19c63          	bne	gp,t4,1c20 <fail>

00001a8c <test_28>:
test_28():
    1a8c:	00000213          	li	tp,0
    1a90:	00f00093          	li	ra,15
    1a94:	00000013          	nop
    1a98:	00000013          	nop
    1a9c:	00b00113          	li	sp,11
    1aa0:	002081b3          	add	gp,ra,sp
    1aa4:	00120213          	addi	tp,tp,1 # 1 <reset_vec+0x1>
    1aa8:	00200293          	li	t0,2
    1aac:	fe5212e3          	bne	tp,t0,1a90 <test_28+0x4>
    1ab0:	01a00e93          	li	t4,26
    1ab4:	01c00e13          	li	t3,28
    1ab8:	17d19463          	bne	gp,t4,1c20 <fail>

00001abc <test_29>:
test_29():
    1abc:	00000213          	li	tp,0
    1ac0:	00b00113          	li	sp,11
    1ac4:	00d00093          	li	ra,13
    1ac8:	002081b3          	add	gp,ra,sp
    1acc:	00120213          	addi	tp,tp,1 # 1 <reset_vec+0x1>
    1ad0:	00200293          	li	t0,2
    1ad4:	fe5216e3          	bne	tp,t0,1ac0 <test_29+0x4>
    1ad8:	01800e93          	li	t4,24
    1adc:	01d00e13          	li	t3,29
    1ae0:	15d19063          	bne	gp,t4,1c20 <fail>

00001ae4 <test_30>:
test_30():
    1ae4:	00000213          	li	tp,0
    1ae8:	00b00113          	li	sp,11
    1aec:	00e00093          	li	ra,14
    1af0:	00000013          	nop
    1af4:	002081b3          	add	gp,ra,sp
    1af8:	00120213          	addi	tp,tp,1 # 1 <reset_vec+0x1>
    1afc:	00200293          	li	t0,2
    1b00:	fe5214e3          	bne	tp,t0,1ae8 <test_30+0x4>
    1b04:	01900e93          	li	t4,25
    1b08:	01e00e13          	li	t3,30
    1b0c:	11d19a63          	bne	gp,t4,1c20 <fail>

00001b10 <test_31>:
test_31():
    1b10:	00000213          	li	tp,0
    1b14:	00b00113          	li	sp,11
    1b18:	00f00093          	li	ra,15
    1b1c:	00000013          	nop
    1b20:	00000013          	nop
    1b24:	002081b3          	add	gp,ra,sp
    1b28:	00120213          	addi	tp,tp,1 # 1 <reset_vec+0x1>
    1b2c:	00200293          	li	t0,2
    1b30:	fe5212e3          	bne	tp,t0,1b14 <test_31+0x4>
    1b34:	01a00e93          	li	t4,26
    1b38:	01f00e13          	li	t3,31
    1b3c:	0fd19263          	bne	gp,t4,1c20 <fail>

00001b40 <test_32>:
test_32():
    1b40:	00000213          	li	tp,0
    1b44:	00b00113          	li	sp,11
    1b48:	00000013          	nop
    1b4c:	00d00093          	li	ra,13
    1b50:	002081b3          	add	gp,ra,sp
    1b54:	00120213          	addi	tp,tp,1 # 1 <reset_vec+0x1>
    1b58:	00200293          	li	t0,2
    1b5c:	fe5214e3          	bne	tp,t0,1b44 <test_32+0x4>
    1b60:	01800e93          	li	t4,24
    1b64:	02000e13          	li	t3,32
    1b68:	0bd19c63          	bne	gp,t4,1c20 <fail>

00001b6c <test_33>:
test_33():
    1b6c:	00000213          	li	tp,0
    1b70:	00b00113          	li	sp,11
    1b74:	00000013          	nop
    1b78:	00e00093          	li	ra,14
    1b7c:	00000013          	nop
    1b80:	002081b3          	add	gp,ra,sp
    1b84:	00120213          	addi	tp,tp,1 # 1 <reset_vec+0x1>
    1b88:	00200293          	li	t0,2
    1b8c:	fe5212e3          	bne	tp,t0,1b70 <test_33+0x4>
    1b90:	01900e93          	li	t4,25
    1b94:	02100e13          	li	t3,33
    1b98:	09d19463          	bne	gp,t4,1c20 <fail>

00001b9c <test_34>:
test_34():
    1b9c:	00000213          	li	tp,0
    1ba0:	00b00113          	li	sp,11
    1ba4:	00000013          	nop
    1ba8:	00000013          	nop
    1bac:	00f00093          	li	ra,15
    1bb0:	002081b3          	add	gp,ra,sp
    1bb4:	00120213          	addi	tp,tp,1 # 1 <reset_vec+0x1>
    1bb8:	00200293          	li	t0,2
    1bbc:	fe5212e3          	bne	tp,t0,1ba0 <test_34+0x4>
    1bc0:	01a00e93          	li	t4,26
    1bc4:	02200e13          	li	t3,34
    1bc8:	05d19c63          	bne	gp,t4,1c20 <fail>

00001bcc <test_35>:
test_35():
    1bcc:	00f00093          	li	ra,15
    1bd0:	00100133          	add	sp,zero,ra
    1bd4:	00f00e93          	li	t4,15
    1bd8:	02300e13          	li	t3,35
    1bdc:	05d11263          	bne	sp,t4,1c20 <fail>

00001be0 <test_36>:
test_36():
    1be0:	02000093          	li	ra,32
    1be4:	00008133          	add	sp,ra,zero
    1be8:	02000e93          	li	t4,32
    1bec:	02400e13          	li	t3,36
    1bf0:	03d11863          	bne	sp,t4,1c20 <fail>

00001bf4 <test_37>:
test_37():
    1bf4:	000000b3          	add	ra,zero,zero
    1bf8:	00000e93          	li	t4,0
    1bfc:	02500e13          	li	t3,37
    1c00:	03d09063          	bne	ra,t4,1c20 <fail>

00001c04 <test_38>:
test_38():
    1c04:	01000093          	li	ra,16
    1c08:	01e00113          	li	sp,30
    1c0c:	00208033          	add	zero,ra,sp
    1c10:	00000e93          	li	t4,0
    1c14:	02600e13          	li	t3,38
    1c18:	01d01463          	bne	zero,t4,1c20 <fail>
    1c1c:	03c01a63          	bne	zero,t3,1c50 <pass>

00001c20 <fail>:
fail():
    1c20:	10000537          	lui	a0,0x10000
    1c24:	04500593          	li	a1,69
    1c28:	05200613          	li	a2,82
    1c2c:	04f00693          	li	a3,79
    1c30:	00a00713          	li	a4,10
    1c34:	00b52023          	sw	a1,0(a0) # 10000000 <end+0xfff2fb2>
    1c38:	00c52023          	sw	a2,0(a0)
    1c3c:	00c52023          	sw	a2,0(a0)
    1c40:	00d52023          	sw	a3,0(a0)
    1c44:	00c52023          	sw	a2,0(a0)
    1c48:	00e52023          	sw	a4,0(a0)
    1c4c:	00100073          	ebreak

00001c50 <pass>:
pass():
    1c50:	10000537          	lui	a0,0x10000
    1c54:	04f00593          	li	a1,79
    1c58:	04b00613          	li	a2,75
    1c5c:	00a00693          	li	a3,10
    1c60:	00b52023          	sw	a1,0(a0) # 10000000 <end+0xfff2fb2>
    1c64:	00c52023          	sw	a2,0(a0)
    1c68:	00d52023          	sw	a3,0(a0)
    1c6c:	85bfe06f          	j	4c6 <add_ret>

00001c70 <andi>:
andi():
    1c70:	00002537          	lui	a0,0x2
    1c74:	c9050513          	addi	a0,a0,-880 # 1c90 <.test_name>
    1c78:	10000637          	lui	a2,0x10000

00001c7c <.prname_next>:
.prname_next():
    1c7c:	00050583          	lb	a1,0(a0)
    1c80:	00058c63          	beqz	a1,1c98 <.prname_done>
    1c84:	00b62023          	sw	a1,0(a2) # 10000000 <end+0xfff2fb2>
    1c88:	00150513          	addi	a0,a0,1
    1c8c:	ff1ff06f          	j	1c7c <.prname_next>

00001c90 <.test_name>:
.test_name():
    1c90:	6e61                	.insn	2, 0x6e61
    1c92:	6964                	.insn	2, 0x6964
    1c94:	0000                	.insn	2, 0x
	...

00001c98 <.prname_done>:
.prname_done():
    1c98:	02e00593          	li	a1,46
    1c9c:	00b62023          	sw	a1,0(a2)
    1ca0:	00b62023          	sw	a1,0(a2)

00001ca4 <test_2>:
test_2():
    1ca4:	ff0100b7          	lui	ra,0xff010
    1ca8:	f0008093          	addi	ra,ra,-256 # ff00ff00 <end+0xff002eb2>
    1cac:	f0f0f193          	andi	gp,ra,-241
    1cb0:	ff010eb7          	lui	t4,0xff010
    1cb4:	f00e8e93          	addi	t4,t4,-256 # ff00ff00 <end+0xff002eb2>
    1cb8:	00200e13          	li	t3,2
    1cbc:	1bd19463          	bne	gp,t4,1e64 <fail>

00001cc0 <test_3>:
test_3():
    1cc0:	0ff010b7          	lui	ra,0xff01
    1cc4:	ff008093          	addi	ra,ra,-16 # ff00ff0 <end+0xfef3fa2>
    1cc8:	0f00f193          	andi	gp,ra,240
    1ccc:	0f000e93          	li	t4,240
    1cd0:	00300e13          	li	t3,3
    1cd4:	19d19863          	bne	gp,t4,1e64 <fail>

00001cd8 <test_4>:
test_4():
    1cd8:	00ff00b7          	lui	ra,0xff0
    1cdc:	0ff08093          	addi	ra,ra,255 # ff00ff <end+0xfe30b1>
    1ce0:	70f0f193          	andi	gp,ra,1807
    1ce4:	00f00e93          	li	t4,15
    1ce8:	00400e13          	li	t3,4
    1cec:	17d19c63          	bne	gp,t4,1e64 <fail>

00001cf0 <test_5>:
test_5():
    1cf0:	f00ff0b7          	lui	ra,0xf00ff
    1cf4:	00f08093          	addi	ra,ra,15 # f00ff00f <end+0xf00f1fc1>
    1cf8:	0f00f193          	andi	gp,ra,240
    1cfc:	00000e93          	li	t4,0
    1d00:	00500e13          	li	t3,5
    1d04:	17d19063          	bne	gp,t4,1e64 <fail>

00001d08 <test_6>:
test_6():
    1d08:	ff0100b7          	lui	ra,0xff010
    1d0c:	f0008093          	addi	ra,ra,-256 # ff00ff00 <end+0xff002eb2>
    1d10:	0f00f093          	andi	ra,ra,240
    1d14:	00000e93          	li	t4,0
    1d18:	00600e13          	li	t3,6
    1d1c:	15d09463          	bne	ra,t4,1e64 <fail>

00001d20 <test_7>:
test_7():
    1d20:	00000213          	li	tp,0
    1d24:	0ff010b7          	lui	ra,0xff01
    1d28:	ff008093          	addi	ra,ra,-16 # ff00ff0 <end+0xfef3fa2>
    1d2c:	70f0f193          	andi	gp,ra,1807
    1d30:	00018313          	mv	t1,gp
    1d34:	00120213          	addi	tp,tp,1 # 1 <reset_vec+0x1>
    1d38:	00200293          	li	t0,2
    1d3c:	fe5214e3          	bne	tp,t0,1d24 <test_7+0x4>
    1d40:	70000e93          	li	t4,1792
    1d44:	00700e13          	li	t3,7
    1d48:	11d31e63          	bne	t1,t4,1e64 <fail>

00001d4c <test_8>:
test_8():
    1d4c:	00000213          	li	tp,0
    1d50:	00ff00b7          	lui	ra,0xff0
    1d54:	0ff08093          	addi	ra,ra,255 # ff00ff <end+0xfe30b1>
    1d58:	0f00f193          	andi	gp,ra,240
    1d5c:	00000013          	nop
    1d60:	00018313          	mv	t1,gp
    1d64:	00120213          	addi	tp,tp,1 # 1 <reset_vec+0x1>
    1d68:	00200293          	li	t0,2
    1d6c:	fe5212e3          	bne	tp,t0,1d50 <test_8+0x4>
    1d70:	0f000e93          	li	t4,240
    1d74:	00800e13          	li	t3,8
    1d78:	0fd31663          	bne	t1,t4,1e64 <fail>

00001d7c <test_9>:
test_9():
    1d7c:	00000213          	li	tp,0
    1d80:	f00ff0b7          	lui	ra,0xf00ff
    1d84:	00f08093          	addi	ra,ra,15 # f00ff00f <end+0xf00f1fc1>
    1d88:	f0f0f193          	andi	gp,ra,-241
    1d8c:	00000013          	nop
    1d90:	00000013          	nop
    1d94:	00018313          	mv	t1,gp
    1d98:	00120213          	addi	tp,tp,1 # 1 <reset_vec+0x1>
    1d9c:	00200293          	li	t0,2
    1da0:	fe5210e3          	bne	tp,t0,1d80 <test_9+0x4>
    1da4:	f00ffeb7          	lui	t4,0xf00ff
    1da8:	00fe8e93          	addi	t4,t4,15 # f00ff00f <end+0xf00f1fc1>
    1dac:	00900e13          	li	t3,9
    1db0:	0bd31a63          	bne	t1,t4,1e64 <fail>

00001db4 <test_10>:
test_10():
    1db4:	00000213          	li	tp,0
    1db8:	0ff010b7          	lui	ra,0xff01
    1dbc:	ff008093          	addi	ra,ra,-16 # ff00ff0 <end+0xfef3fa2>
    1dc0:	70f0f193          	andi	gp,ra,1807
    1dc4:	00120213          	addi	tp,tp,1 # 1 <reset_vec+0x1>
    1dc8:	00200293          	li	t0,2
    1dcc:	fe5216e3          	bne	tp,t0,1db8 <test_10+0x4>
    1dd0:	70000e93          	li	t4,1792
    1dd4:	00a00e13          	li	t3,10
    1dd8:	09d19663          	bne	gp,t4,1e64 <fail>

00001ddc <test_11>:
test_11():
    1ddc:	00000213          	li	tp,0
    1de0:	00ff00b7          	lui	ra,0xff0
    1de4:	0ff08093          	addi	ra,ra,255 # ff00ff <end+0xfe30b1>
    1de8:	00000013          	nop
    1dec:	0f00f193          	andi	gp,ra,240
    1df0:	00120213          	addi	tp,tp,1 # 1 <reset_vec+0x1>
    1df4:	00200293          	li	t0,2
    1df8:	fe5214e3          	bne	tp,t0,1de0 <test_11+0x4>
    1dfc:	0f000e93          	li	t4,240
    1e00:	00b00e13          	li	t3,11
    1e04:	07d19063          	bne	gp,t4,1e64 <fail>

00001e08 <test_12>:
test_12():
    1e08:	00000213          	li	tp,0
    1e0c:	f00ff0b7          	lui	ra,0xf00ff
    1e10:	00f08093          	addi	ra,ra,15 # f00ff00f <end+0xf00f1fc1>
    1e14:	00000013          	nop
    1e18:	00000013          	nop
    1e1c:	70f0f193          	andi	gp,ra,1807
    1e20:	00120213          	addi	tp,tp,1 # 1 <reset_vec+0x1>
    1e24:	00200293          	li	t0,2
    1e28:	fe5212e3          	bne	tp,t0,1e0c <test_12+0x4>
    1e2c:	00f00e93          	li	t4,15
    1e30:	00c00e13          	li	t3,12
    1e34:	03d19863          	bne	gp,t4,1e64 <fail>

00001e38 <test_13>:
test_13():
    1e38:	0f007093          	andi	ra,zero,240
    1e3c:	00000e93          	li	t4,0
    1e40:	00d00e13          	li	t3,13
    1e44:	03d09063          	bne	ra,t4,1e64 <fail>

00001e48 <test_14>:
test_14():
    1e48:	00ff00b7          	lui	ra,0xff0
    1e4c:	0ff08093          	addi	ra,ra,255 # ff00ff <end+0xfe30b1>
    1e50:	70f0f013          	andi	zero,ra,1807
    1e54:	00000e93          	li	t4,0
    1e58:	00e00e13          	li	t3,14
    1e5c:	01d01463          	bne	zero,t4,1e64 <fail>
    1e60:	03c01a63          	bne	zero,t3,1e94 <pass>

00001e64 <fail>:
fail():
    1e64:	10000537          	lui	a0,0x10000
    1e68:	04500593          	li	a1,69
    1e6c:	05200613          	li	a2,82
    1e70:	04f00693          	li	a3,79
    1e74:	00a00713          	li	a4,10
    1e78:	00b52023          	sw	a1,0(a0) # 10000000 <end+0xfff2fb2>
    1e7c:	00c52023          	sw	a2,0(a0)
    1e80:	00c52023          	sw	a2,0(a0)
    1e84:	00d52023          	sw	a3,0(a0)
    1e88:	00c52023          	sw	a2,0(a0)
    1e8c:	00e52023          	sw	a4,0(a0)
    1e90:	00100073          	ebreak

00001e94 <pass>:
pass():
    1e94:	10000537          	lui	a0,0x10000
    1e98:	04f00593          	li	a1,79
    1e9c:	04b00613          	li	a2,75
    1ea0:	00a00693          	li	a3,10
    1ea4:	00b52023          	sw	a1,0(a0) # 10000000 <end+0xfff2fb2>
    1ea8:	00c52023          	sw	a2,0(a0)
    1eac:	00d52023          	sw	a3,0(a0)
    1eb0:	e16fe06f          	j	4c6 <add_ret>

00001eb4 <and>:
and():
    1eb4:	00002537          	lui	a0,0x2
    1eb8:	ed450513          	addi	a0,a0,-300 # 1ed4 <.test_name>
    1ebc:	10000637          	lui	a2,0x10000

00001ec0 <.prname_next>:
.prname_next():
    1ec0:	00050583          	lb	a1,0(a0)
    1ec4:	00058a63          	beqz	a1,1ed8 <.prname_done>
    1ec8:	00b62023          	sw	a1,0(a2) # 10000000 <end+0xfff2fb2>
    1ecc:	00150513          	addi	a0,a0,1
    1ed0:	ff1ff06f          	j	1ec0 <.prname_next>

00001ed4 <.test_name>:
.test_name():
    1ed4:	6e61                	.insn	2, 0x6e61
    1ed6:	0064                	.insn	2, 0x0064

00001ed8 <.prname_done>:
.prname_done():
    1ed8:	02e00593          	li	a1,46
    1edc:	00b62023          	sw	a1,0(a2)
    1ee0:	00b62023          	sw	a1,0(a2)

00001ee4 <test_2>:
test_2():
    1ee4:	ff0100b7          	lui	ra,0xff010
    1ee8:	f0008093          	addi	ra,ra,-256 # ff00ff00 <end+0xff002eb2>
    1eec:	0f0f1137          	lui	sp,0xf0f1
    1ef0:	f0f10113          	addi	sp,sp,-241 # f0f0f0f <end+0xf0e3ec1>
    1ef4:	0020f1b3          	and	gp,ra,sp
    1ef8:	0f001eb7          	lui	t4,0xf001
    1efc:	f00e8e93          	addi	t4,t4,-256 # f000f00 <end+0xeff3eb2>
    1f00:	00200e13          	li	t3,2
    1f04:	49d19c63          	bne	gp,t4,239c <fail>

00001f08 <test_3>:
test_3():
    1f08:	0ff010b7          	lui	ra,0xff01
    1f0c:	ff008093          	addi	ra,ra,-16 # ff00ff0 <end+0xfef3fa2>
    1f10:	f0f0f137          	lui	sp,0xf0f0f
    1f14:	0f010113          	addi	sp,sp,240 # f0f0f0f0 <end+0xf0f020a2>
    1f18:	0020f1b3          	and	gp,ra,sp
    1f1c:	00f00eb7          	lui	t4,0xf00
    1f20:	0f0e8e93          	addi	t4,t4,240 # f000f0 <end+0xef30a2>
    1f24:	00300e13          	li	t3,3
    1f28:	47d19a63          	bne	gp,t4,239c <fail>

00001f2c <test_4>:
test_4():
    1f2c:	00ff00b7          	lui	ra,0xff0
    1f30:	0ff08093          	addi	ra,ra,255 # ff00ff <end+0xfe30b1>
    1f34:	0f0f1137          	lui	sp,0xf0f1
    1f38:	f0f10113          	addi	sp,sp,-241 # f0f0f0f <end+0xf0e3ec1>
    1f3c:	0020f1b3          	and	gp,ra,sp
    1f40:	000f0eb7          	lui	t4,0xf0
    1f44:	00fe8e93          	addi	t4,t4,15 # f000f <end+0xe2fc1>
    1f48:	00400e13          	li	t3,4
    1f4c:	45d19863          	bne	gp,t4,239c <fail>

00001f50 <test_5>:
test_5():
    1f50:	f00ff0b7          	lui	ra,0xf00ff
    1f54:	00f08093          	addi	ra,ra,15 # f00ff00f <end+0xf00f1fc1>
    1f58:	f0f0f137          	lui	sp,0xf0f0f
    1f5c:	0f010113          	addi	sp,sp,240 # f0f0f0f0 <end+0xf0f020a2>
    1f60:	0020f1b3          	and	gp,ra,sp
    1f64:	f000feb7          	lui	t4,0xf000f
    1f68:	00500e13          	li	t3,5
    1f6c:	43d19863          	bne	gp,t4,239c <fail>

00001f70 <test_6>:
test_6():
    1f70:	ff0100b7          	lui	ra,0xff010
    1f74:	f0008093          	addi	ra,ra,-256 # ff00ff00 <end+0xff002eb2>
    1f78:	0f0f1137          	lui	sp,0xf0f1
    1f7c:	f0f10113          	addi	sp,sp,-241 # f0f0f0f <end+0xf0e3ec1>
    1f80:	0020f0b3          	and	ra,ra,sp
    1f84:	0f001eb7          	lui	t4,0xf001
    1f88:	f00e8e93          	addi	t4,t4,-256 # f000f00 <end+0xeff3eb2>
    1f8c:	00600e13          	li	t3,6
    1f90:	41d09663          	bne	ra,t4,239c <fail>

00001f94 <test_7>:
test_7():
    1f94:	0ff010b7          	lui	ra,0xff01
    1f98:	ff008093          	addi	ra,ra,-16 # ff00ff0 <end+0xfef3fa2>
    1f9c:	f0f0f137          	lui	sp,0xf0f0f
    1fa0:	0f010113          	addi	sp,sp,240 # f0f0f0f0 <end+0xf0f020a2>
    1fa4:	0020f133          	and	sp,ra,sp
    1fa8:	00f00eb7          	lui	t4,0xf00
    1fac:	0f0e8e93          	addi	t4,t4,240 # f000f0 <end+0xef30a2>
    1fb0:	00700e13          	li	t3,7
    1fb4:	3fd11463          	bne	sp,t4,239c <fail>

00001fb8 <test_8>:
test_8():
    1fb8:	ff0100b7          	lui	ra,0xff010
    1fbc:	f0008093          	addi	ra,ra,-256 # ff00ff00 <end+0xff002eb2>
    1fc0:	0010f0b3          	and	ra,ra,ra
    1fc4:	ff010eb7          	lui	t4,0xff010
    1fc8:	f00e8e93          	addi	t4,t4,-256 # ff00ff00 <end+0xff002eb2>
    1fcc:	00800e13          	li	t3,8
    1fd0:	3dd09663          	bne	ra,t4,239c <fail>

00001fd4 <test_9>:
test_9():
    1fd4:	00000213          	li	tp,0
    1fd8:	ff0100b7          	lui	ra,0xff010
    1fdc:	f0008093          	addi	ra,ra,-256 # ff00ff00 <end+0xff002eb2>
    1fe0:	0f0f1137          	lui	sp,0xf0f1
    1fe4:	f0f10113          	addi	sp,sp,-241 # f0f0f0f <end+0xf0e3ec1>
    1fe8:	0020f1b3          	and	gp,ra,sp
    1fec:	00018313          	mv	t1,gp
    1ff0:	00120213          	addi	tp,tp,1 # 1 <reset_vec+0x1>
    1ff4:	00200293          	li	t0,2
    1ff8:	fe5210e3          	bne	tp,t0,1fd8 <test_9+0x4>
    1ffc:	0f001eb7          	lui	t4,0xf001
    2000:	f00e8e93          	addi	t4,t4,-256 # f000f00 <end+0xeff3eb2>
    2004:	00900e13          	li	t3,9
    2008:	39d31a63          	bne	t1,t4,239c <fail>

0000200c <test_10>:
test_10():
    200c:	00000213          	li	tp,0
    2010:	0ff010b7          	lui	ra,0xff01
    2014:	ff008093          	addi	ra,ra,-16 # ff00ff0 <end+0xfef3fa2>
    2018:	f0f0f137          	lui	sp,0xf0f0f
    201c:	0f010113          	addi	sp,sp,240 # f0f0f0f0 <end+0xf0f020a2>
    2020:	0020f1b3          	and	gp,ra,sp
    2024:	00000013          	nop
    2028:	00018313          	mv	t1,gp
    202c:	00120213          	addi	tp,tp,1 # 1 <reset_vec+0x1>
    2030:	00200293          	li	t0,2
    2034:	fc521ee3          	bne	tp,t0,2010 <test_10+0x4>
    2038:	00f00eb7          	lui	t4,0xf00
    203c:	0f0e8e93          	addi	t4,t4,240 # f000f0 <end+0xef30a2>
    2040:	00a00e13          	li	t3,10
    2044:	35d31c63          	bne	t1,t4,239c <fail>

00002048 <test_11>:
test_11():
    2048:	00000213          	li	tp,0
    204c:	00ff00b7          	lui	ra,0xff0
    2050:	0ff08093          	addi	ra,ra,255 # ff00ff <end+0xfe30b1>
    2054:	0f0f1137          	lui	sp,0xf0f1
    2058:	f0f10113          	addi	sp,sp,-241 # f0f0f0f <end+0xf0e3ec1>
    205c:	0020f1b3          	and	gp,ra,sp
    2060:	00000013          	nop
    2064:	00000013          	nop
    2068:	00018313          	mv	t1,gp
    206c:	00120213          	addi	tp,tp,1 # 1 <reset_vec+0x1>
    2070:	00200293          	li	t0,2
    2074:	fc521ce3          	bne	tp,t0,204c <test_11+0x4>
    2078:	000f0eb7          	lui	t4,0xf0
    207c:	00fe8e93          	addi	t4,t4,15 # f000f <end+0xe2fc1>
    2080:	00b00e13          	li	t3,11
    2084:	31d31c63          	bne	t1,t4,239c <fail>

00002088 <test_12>:
test_12():
    2088:	00000213          	li	tp,0
    208c:	ff0100b7          	lui	ra,0xff010
    2090:	f0008093          	addi	ra,ra,-256 # ff00ff00 <end+0xff002eb2>
    2094:	0f0f1137          	lui	sp,0xf0f1
    2098:	f0f10113          	addi	sp,sp,-241 # f0f0f0f <end+0xf0e3ec1>
    209c:	0020f1b3          	and	gp,ra,sp
    20a0:	00120213          	addi	tp,tp,1 # 1 <reset_vec+0x1>
    20a4:	00200293          	li	t0,2
    20a8:	fe5212e3          	bne	tp,t0,208c <test_12+0x4>
    20ac:	0f001eb7          	lui	t4,0xf001
    20b0:	f00e8e93          	addi	t4,t4,-256 # f000f00 <end+0xeff3eb2>
    20b4:	00c00e13          	li	t3,12
    20b8:	2fd19263          	bne	gp,t4,239c <fail>

000020bc <test_13>:
test_13():
    20bc:	00000213          	li	tp,0
    20c0:	0ff010b7          	lui	ra,0xff01
    20c4:	ff008093          	addi	ra,ra,-16 # ff00ff0 <end+0xfef3fa2>
    20c8:	f0f0f137          	lui	sp,0xf0f0f
    20cc:	0f010113          	addi	sp,sp,240 # f0f0f0f0 <end+0xf0f020a2>
    20d0:	00000013          	nop
    20d4:	0020f1b3          	and	gp,ra,sp
    20d8:	00120213          	addi	tp,tp,1 # 1 <reset_vec+0x1>
    20dc:	00200293          	li	t0,2
    20e0:	fe5210e3          	bne	tp,t0,20c0 <test_13+0x4>
    20e4:	00f00eb7          	lui	t4,0xf00
    20e8:	0f0e8e93          	addi	t4,t4,240 # f000f0 <end+0xef30a2>
    20ec:	00d00e13          	li	t3,13
    20f0:	2bd19663          	bne	gp,t4,239c <fail>

000020f4 <test_14>:
test_14():
    20f4:	00000213          	li	tp,0
    20f8:	00ff00b7          	lui	ra,0xff0
    20fc:	0ff08093          	addi	ra,ra,255 # ff00ff <end+0xfe30b1>
    2100:	0f0f1137          	lui	sp,0xf0f1
    2104:	f0f10113          	addi	sp,sp,-241 # f0f0f0f <end+0xf0e3ec1>
    2108:	00000013          	nop
    210c:	00000013          	nop
    2110:	0020f1b3          	and	gp,ra,sp
    2114:	00120213          	addi	tp,tp,1 # 1 <reset_vec+0x1>
    2118:	00200293          	li	t0,2
    211c:	fc521ee3          	bne	tp,t0,20f8 <test_14+0x4>
    2120:	000f0eb7          	lui	t4,0xf0
    2124:	00fe8e93          	addi	t4,t4,15 # f000f <end+0xe2fc1>
    2128:	00e00e13          	li	t3,14
    212c:	27d19863          	bne	gp,t4,239c <fail>

00002130 <test_15>:
test_15():
    2130:	00000213          	li	tp,0
    2134:	ff0100b7          	lui	ra,0xff010
    2138:	f0008093          	addi	ra,ra,-256 # ff00ff00 <end+0xff002eb2>
    213c:	00000013          	nop
    2140:	0f0f1137          	lui	sp,0xf0f1
    2144:	f0f10113          	addi	sp,sp,-241 # f0f0f0f <end+0xf0e3ec1>
    2148:	0020f1b3          	and	gp,ra,sp
    214c:	00120213          	addi	tp,tp,1 # 1 <reset_vec+0x1>
    2150:	00200293          	li	t0,2
    2154:	fe5210e3          	bne	tp,t0,2134 <test_15+0x4>
    2158:	0f001eb7          	lui	t4,0xf001
    215c:	f00e8e93          	addi	t4,t4,-256 # f000f00 <end+0xeff3eb2>
    2160:	00f00e13          	li	t3,15
    2164:	23d19c63          	bne	gp,t4,239c <fail>

00002168 <test_16>:
test_16():
    2168:	00000213          	li	tp,0
    216c:	0ff010b7          	lui	ra,0xff01
    2170:	ff008093          	addi	ra,ra,-16 # ff00ff0 <end+0xfef3fa2>
    2174:	00000013          	nop
    2178:	f0f0f137          	lui	sp,0xf0f0f
    217c:	0f010113          	addi	sp,sp,240 # f0f0f0f0 <end+0xf0f020a2>
    2180:	00000013          	nop
    2184:	0020f1b3          	and	gp,ra,sp
    2188:	00120213          	addi	tp,tp,1 # 1 <reset_vec+0x1>
    218c:	00200293          	li	t0,2
    2190:	fc521ee3          	bne	tp,t0,216c <test_16+0x4>
    2194:	00f00eb7          	lui	t4,0xf00
    2198:	0f0e8e93          	addi	t4,t4,240 # f000f0 <end+0xef30a2>
    219c:	01000e13          	li	t3,16
    21a0:	1fd19e63          	bne	gp,t4,239c <fail>

000021a4 <test_17>:
test_17():
    21a4:	00000213          	li	tp,0
    21a8:	00ff00b7          	lui	ra,0xff0
    21ac:	0ff08093          	addi	ra,ra,255 # ff00ff <end+0xfe30b1>
    21b0:	00000013          	nop
    21b4:	00000013          	nop
    21b8:	0f0f1137          	lui	sp,0xf0f1
    21bc:	f0f10113          	addi	sp,sp,-241 # f0f0f0f <end+0xf0e3ec1>
    21c0:	0020f1b3          	and	gp,ra,sp
    21c4:	00120213          	addi	tp,tp,1 # 1 <reset_vec+0x1>
    21c8:	00200293          	li	t0,2
    21cc:	fc521ee3          	bne	tp,t0,21a8 <test_17+0x4>
    21d0:	000f0eb7          	lui	t4,0xf0
    21d4:	00fe8e93          	addi	t4,t4,15 # f000f <end+0xe2fc1>
    21d8:	01100e13          	li	t3,17
    21dc:	1dd19063          	bne	gp,t4,239c <fail>

000021e0 <test_18>:
test_18():
    21e0:	00000213          	li	tp,0
    21e4:	0f0f1137          	lui	sp,0xf0f1
    21e8:	f0f10113          	addi	sp,sp,-241 # f0f0f0f <end+0xf0e3ec1>
    21ec:	ff0100b7          	lui	ra,0xff010
    21f0:	f0008093          	addi	ra,ra,-256 # ff00ff00 <end+0xff002eb2>
    21f4:	0020f1b3          	and	gp,ra,sp
    21f8:	00120213          	addi	tp,tp,1 # 1 <reset_vec+0x1>
    21fc:	00200293          	li	t0,2
    2200:	fe5212e3          	bne	tp,t0,21e4 <test_18+0x4>
    2204:	0f001eb7          	lui	t4,0xf001
    2208:	f00e8e93          	addi	t4,t4,-256 # f000f00 <end+0xeff3eb2>
    220c:	01200e13          	li	t3,18
    2210:	19d19663          	bne	gp,t4,239c <fail>

00002214 <test_19>:
test_19():
    2214:	00000213          	li	tp,0
    2218:	f0f0f137          	lui	sp,0xf0f0f
    221c:	0f010113          	addi	sp,sp,240 # f0f0f0f0 <end+0xf0f020a2>
    2220:	0ff010b7          	lui	ra,0xff01
    2224:	ff008093          	addi	ra,ra,-16 # ff00ff0 <end+0xfef3fa2>
    2228:	00000013          	nop
    222c:	0020f1b3          	and	gp,ra,sp
    2230:	00120213          	addi	tp,tp,1 # 1 <reset_vec+0x1>
    2234:	00200293          	li	t0,2
    2238:	fe5210e3          	bne	tp,t0,2218 <test_19+0x4>
    223c:	00f00eb7          	lui	t4,0xf00
    2240:	0f0e8e93          	addi	t4,t4,240 # f000f0 <end+0xef30a2>
    2244:	01300e13          	li	t3,19
    2248:	15d19a63          	bne	gp,t4,239c <fail>

0000224c <test_20>:
test_20():
    224c:	00000213          	li	tp,0
    2250:	0f0f1137          	lui	sp,0xf0f1
    2254:	f0f10113          	addi	sp,sp,-241 # f0f0f0f <end+0xf0e3ec1>
    2258:	00ff00b7          	lui	ra,0xff0
    225c:	0ff08093          	addi	ra,ra,255 # ff00ff <end+0xfe30b1>
    2260:	00000013          	nop
    2264:	00000013          	nop
    2268:	0020f1b3          	and	gp,ra,sp
    226c:	00120213          	addi	tp,tp,1 # 1 <reset_vec+0x1>
    2270:	00200293          	li	t0,2
    2274:	fc521ee3          	bne	tp,t0,2250 <test_20+0x4>
    2278:	000f0eb7          	lui	t4,0xf0
    227c:	00fe8e93          	addi	t4,t4,15 # f000f <end+0xe2fc1>
    2280:	01400e13          	li	t3,20
    2284:	11d19c63          	bne	gp,t4,239c <fail>

00002288 <test_21>:
test_21():
    2288:	00000213          	li	tp,0
    228c:	0f0f1137          	lui	sp,0xf0f1
    2290:	f0f10113          	addi	sp,sp,-241 # f0f0f0f <end+0xf0e3ec1>
    2294:	00000013          	nop
    2298:	ff0100b7          	lui	ra,0xff010
    229c:	f0008093          	addi	ra,ra,-256 # ff00ff00 <end+0xff002eb2>
    22a0:	0020f1b3          	and	gp,ra,sp
    22a4:	00120213          	addi	tp,tp,1 # 1 <reset_vec+0x1>
    22a8:	00200293          	li	t0,2
    22ac:	fe5210e3          	bne	tp,t0,228c <test_21+0x4>
    22b0:	0f001eb7          	lui	t4,0xf001
    22b4:	f00e8e93          	addi	t4,t4,-256 # f000f00 <end+0xeff3eb2>
    22b8:	01500e13          	li	t3,21
    22bc:	0fd19063          	bne	gp,t4,239c <fail>

000022c0 <test_22>:
test_22():
    22c0:	00000213          	li	tp,0
    22c4:	f0f0f137          	lui	sp,0xf0f0f
    22c8:	0f010113          	addi	sp,sp,240 # f0f0f0f0 <end+0xf0f020a2>
    22cc:	00000013          	nop
    22d0:	0ff010b7          	lui	ra,0xff01
    22d4:	ff008093          	addi	ra,ra,-16 # ff00ff0 <end+0xfef3fa2>
    22d8:	00000013          	nop
    22dc:	0020f1b3          	and	gp,ra,sp
    22e0:	00120213          	addi	tp,tp,1 # 1 <reset_vec+0x1>
    22e4:	00200293          	li	t0,2
    22e8:	fc521ee3          	bne	tp,t0,22c4 <test_22+0x4>
    22ec:	00f00eb7          	lui	t4,0xf00
    22f0:	0f0e8e93          	addi	t4,t4,240 # f000f0 <end+0xef30a2>
    22f4:	01600e13          	li	t3,22
    22f8:	0bd19263          	bne	gp,t4,239c <fail>

000022fc <test_23>:
test_23():
    22fc:	00000213          	li	tp,0
    2300:	0f0f1137          	lui	sp,0xf0f1
    2304:	f0f10113          	addi	sp,sp,-241 # f0f0f0f <end+0xf0e3ec1>
    2308:	00000013          	nop
    230c:	00000013          	nop
    2310:	00ff00b7          	lui	ra,0xff0
    2314:	0ff08093          	addi	ra,ra,255 # ff00ff <end+0xfe30b1>
    2318:	0020f1b3          	and	gp,ra,sp
    231c:	00120213          	addi	tp,tp,1 # 1 <reset_vec+0x1>
    2320:	00200293          	li	t0,2
    2324:	fc521ee3          	bne	tp,t0,2300 <test_23+0x4>
    2328:	000f0eb7          	lui	t4,0xf0
    232c:	00fe8e93          	addi	t4,t4,15 # f000f <end+0xe2fc1>
    2330:	01700e13          	li	t3,23
    2334:	07d19463          	bne	gp,t4,239c <fail>

00002338 <test_24>:
test_24():
    2338:	ff0100b7          	lui	ra,0xff010
    233c:	f0008093          	addi	ra,ra,-256 # ff00ff00 <end+0xff002eb2>
    2340:	00107133          	and	sp,zero,ra
    2344:	00000e93          	li	t4,0
    2348:	01800e13          	li	t3,24
    234c:	05d11863          	bne	sp,t4,239c <fail>

00002350 <test_25>:
test_25():
    2350:	00ff00b7          	lui	ra,0xff0
    2354:	0ff08093          	addi	ra,ra,255 # ff00ff <end+0xfe30b1>
    2358:	0000f133          	and	sp,ra,zero
    235c:	00000e93          	li	t4,0
    2360:	01900e13          	li	t3,25
    2364:	03d11c63          	bne	sp,t4,239c <fail>

00002368 <test_26>:
test_26():
    2368:	000070b3          	and	ra,zero,zero
    236c:	00000e93          	li	t4,0
    2370:	01a00e13          	li	t3,26
    2374:	03d09463          	bne	ra,t4,239c <fail>

00002378 <test_27>:
test_27():
    2378:	111110b7          	lui	ra,0x11111
    237c:	11108093          	addi	ra,ra,273 # 11111111 <end+0x111040c3>
    2380:	22222137          	lui	sp,0x22222
    2384:	22210113          	addi	sp,sp,546 # 22222222 <end+0x222151d4>
    2388:	0020f033          	and	zero,ra,sp
    238c:	00000e93          	li	t4,0
    2390:	01b00e13          	li	t3,27
    2394:	01d01463          	bne	zero,t4,239c <fail>
    2398:	03c01a63          	bne	zero,t3,23cc <pass>

0000239c <fail>:
fail():
    239c:	10000537          	lui	a0,0x10000
    23a0:	04500593          	li	a1,69
    23a4:	05200613          	li	a2,82
    23a8:	04f00693          	li	a3,79
    23ac:	00a00713          	li	a4,10
    23b0:	00b52023          	sw	a1,0(a0) # 10000000 <end+0xfff2fb2>
    23b4:	00c52023          	sw	a2,0(a0)
    23b8:	00c52023          	sw	a2,0(a0)
    23bc:	00d52023          	sw	a3,0(a0)
    23c0:	00c52023          	sw	a2,0(a0)
    23c4:	00e52023          	sw	a4,0(a0)
    23c8:	00100073          	ebreak

000023cc <pass>:
pass():
    23cc:	10000537          	lui	a0,0x10000
    23d0:	04f00593          	li	a1,79
    23d4:	04b00613          	li	a2,75
    23d8:	00a00693          	li	a3,10
    23dc:	00b52023          	sw	a1,0(a0) # 10000000 <end+0xfff2fb2>
    23e0:	00c52023          	sw	a2,0(a0)
    23e4:	00d52023          	sw	a3,0(a0)
    23e8:	8defe06f          	j	4c6 <add_ret>
    23ec:	0000                	.insn	2, 0x
	...

000023f0 <auipc>:
auipc():
    23f0:	00002537          	lui	a0,0x2
    23f4:	41050513          	addi	a0,a0,1040 # 2410 <.test_name>
    23f8:	10000637          	lui	a2,0x10000

000023fc <.prname_next>:
.prname_next():
    23fc:	00050583          	lb	a1,0(a0)
    2400:	00058c63          	beqz	a1,2418 <.prname_done>
    2404:	00b62023          	sw	a1,0(a2) # 10000000 <end+0xfff2fb2>
    2408:	00150513          	addi	a0,a0,1
    240c:	ff1ff06f          	j	23fc <.prname_next>

00002410 <.test_name>:
.test_name():
    2410:	7561                	.insn	2, 0x7561
    2412:	7069                	.insn	2, 0x7069
    2414:	00000063          	beqz	zero,2414 <.test_name+0x4>

00002418 <.prname_done>:
.prname_done():
    2418:	02e00593          	li	a1,46
    241c:	00b62023          	sw	a1,0(a2)
    2420:	00b62023          	sw	a1,0(a2)

00002424 <test_2>:
test_2():
    2424:	00000013          	nop
    2428:	00002517          	auipc	a0,0x2
    242c:	71c50513          	addi	a0,a0,1820 # 4b44 <test_5+0x10>
    2430:	004005ef          	jal	a1,2434 <test_2+0x10>
    2434:	40b50533          	sub	a0,a0,a1
    2438:	00002eb7          	lui	t4,0x2
    243c:	710e8e93          	addi	t4,t4,1808 # 2710 <test_18+0x8>
    2440:	00200e13          	li	t3,2
    2444:	03d51463          	bne	a0,t4,246c <fail>

00002448 <test_3>:
test_3():
    2448:	ffffe517          	auipc	a0,0xffffe
    244c:	8fc50513          	addi	a0,a0,-1796 # fffffd44 <end+0xffff2cf6>
    2450:	004005ef          	jal	a1,2454 <test_3+0xc>
    2454:	40b50533          	sub	a0,a0,a1
    2458:	ffffeeb7          	lui	t4,0xffffe
    245c:	8f0e8e93          	addi	t4,t4,-1808 # ffffd8f0 <end+0xffff08a2>
    2460:	00300e13          	li	t3,3
    2464:	01d51463          	bne	a0,t4,246c <fail>
    2468:	03c01a63          	bne	zero,t3,249c <pass>

0000246c <fail>:
fail():
    246c:	10000537          	lui	a0,0x10000
    2470:	04500593          	li	a1,69
    2474:	05200613          	li	a2,82
    2478:	04f00693          	li	a3,79
    247c:	00a00713          	li	a4,10
    2480:	00b52023          	sw	a1,0(a0) # 10000000 <end+0xfff2fb2>
    2484:	00c52023          	sw	a2,0(a0)
    2488:	00c52023          	sw	a2,0(a0)
    248c:	00d52023          	sw	a3,0(a0)
    2490:	00c52023          	sw	a2,0(a0)
    2494:	00e52023          	sw	a4,0(a0)
    2498:	00100073          	ebreak

0000249c <pass>:
pass():
    249c:	10000537          	lui	a0,0x10000
    24a0:	04f00593          	li	a1,79
    24a4:	04b00613          	li	a2,75
    24a8:	00a00693          	li	a3,10
    24ac:	00b52023          	sw	a1,0(a0) # 10000000 <end+0xfff2fb2>
    24b0:	00c52023          	sw	a2,0(a0)
    24b4:	00d52023          	sw	a3,0(a0)
    24b8:	80efe06f          	j	4c6 <add_ret>

000024bc <beq>:
beq():
    24bc:	00002537          	lui	a0,0x2
    24c0:	4dc50513          	addi	a0,a0,1244 # 24dc <.test_name>
    24c4:	10000637          	lui	a2,0x10000

000024c8 <.prname_next>:
.prname_next():
    24c8:	00050583          	lb	a1,0(a0)
    24cc:	00058a63          	beqz	a1,24e0 <.prname_done>
    24d0:	00b62023          	sw	a1,0(a2) # 10000000 <end+0xfff2fb2>
    24d4:	00150513          	addi	a0,a0,1
    24d8:	ff1ff06f          	j	24c8 <.prname_next>

000024dc <.test_name>:
.test_name():
    24dc:	6562                	.insn	2, 0x6562
    24de:	0071                	.insn	2, 0x0071

000024e0 <.prname_done>:
.prname_done():
    24e0:	02e00593          	li	a1,46
    24e4:	00b62023          	sw	a1,0(a2)
    24e8:	00b62023          	sw	a1,0(a2)

000024ec <test_2>:
test_2():
    24ec:	00200e13          	li	t3,2
    24f0:	00000093          	li	ra,0
    24f4:	00000113          	li	sp,0
    24f8:	00208663          	beq	ra,sp,2504 <test_2+0x18>
    24fc:	2bc01863          	bne	zero,t3,27ac <fail>
    2500:	01c01663          	bne	zero,t3,250c <test_3>
    2504:	fe208ee3          	beq	ra,sp,2500 <test_2+0x14>
    2508:	2bc01263          	bne	zero,t3,27ac <fail>

0000250c <test_3>:
test_3():
    250c:	00300e13          	li	t3,3
    2510:	00100093          	li	ra,1
    2514:	00100113          	li	sp,1
    2518:	00208663          	beq	ra,sp,2524 <test_3+0x18>
    251c:	29c01863          	bne	zero,t3,27ac <fail>
    2520:	01c01663          	bne	zero,t3,252c <test_4>
    2524:	fe208ee3          	beq	ra,sp,2520 <test_3+0x14>
    2528:	29c01263          	bne	zero,t3,27ac <fail>

0000252c <test_4>:
test_4():
    252c:	00400e13          	li	t3,4
    2530:	fff00093          	li	ra,-1
    2534:	fff00113          	li	sp,-1
    2538:	00208663          	beq	ra,sp,2544 <test_4+0x18>
    253c:	27c01863          	bne	zero,t3,27ac <fail>
    2540:	01c01663          	bne	zero,t3,254c <test_5>
    2544:	fe208ee3          	beq	ra,sp,2540 <test_4+0x14>
    2548:	27c01263          	bne	zero,t3,27ac <fail>

0000254c <test_5>:
test_5():
    254c:	00500e13          	li	t3,5
    2550:	00000093          	li	ra,0
    2554:	00100113          	li	sp,1
    2558:	00208463          	beq	ra,sp,2560 <test_5+0x14>
    255c:	01c01463          	bne	zero,t3,2564 <test_5+0x18>
    2560:	25c01663          	bne	zero,t3,27ac <fail>
    2564:	fe208ee3          	beq	ra,sp,2560 <test_5+0x14>

00002568 <test_6>:
test_6():
    2568:	00600e13          	li	t3,6
    256c:	00100093          	li	ra,1
    2570:	00000113          	li	sp,0
    2574:	00208463          	beq	ra,sp,257c <test_6+0x14>
    2578:	01c01463          	bne	zero,t3,2580 <test_6+0x18>
    257c:	23c01863          	bne	zero,t3,27ac <fail>
    2580:	fe208ee3          	beq	ra,sp,257c <test_6+0x14>

00002584 <test_7>:
test_7():
    2584:	00700e13          	li	t3,7
    2588:	fff00093          	li	ra,-1
    258c:	00100113          	li	sp,1
    2590:	00208463          	beq	ra,sp,2598 <test_7+0x14>
    2594:	01c01463          	bne	zero,t3,259c <test_7+0x18>
    2598:	21c01a63          	bne	zero,t3,27ac <fail>
    259c:	fe208ee3          	beq	ra,sp,2598 <test_7+0x14>

000025a0 <test_8>:
test_8():
    25a0:	00800e13          	li	t3,8
    25a4:	00100093          	li	ra,1
    25a8:	fff00113          	li	sp,-1
    25ac:	00208463          	beq	ra,sp,25b4 <test_8+0x14>
    25b0:	01c01463          	bne	zero,t3,25b8 <test_8+0x18>
    25b4:	1fc01c63          	bne	zero,t3,27ac <fail>
    25b8:	fe208ee3          	beq	ra,sp,25b4 <test_8+0x14>

000025bc <test_9>:
test_9():
    25bc:	00900e13          	li	t3,9
    25c0:	00000213          	li	tp,0
    25c4:	00000093          	li	ra,0
    25c8:	fff00113          	li	sp,-1
    25cc:	1e208063          	beq	ra,sp,27ac <fail>
    25d0:	00120213          	addi	tp,tp,1 # 1 <reset_vec+0x1>
    25d4:	00200293          	li	t0,2
    25d8:	fe5216e3          	bne	tp,t0,25c4 <test_9+0x8>

000025dc <test_10>:
test_10():
    25dc:	00a00e13          	li	t3,10
    25e0:	00000213          	li	tp,0
    25e4:	00000093          	li	ra,0
    25e8:	fff00113          	li	sp,-1
    25ec:	00000013          	nop
    25f0:	1a208e63          	beq	ra,sp,27ac <fail>
    25f4:	00120213          	addi	tp,tp,1 # 1 <reset_vec+0x1>
    25f8:	00200293          	li	t0,2
    25fc:	fe5214e3          	bne	tp,t0,25e4 <test_10+0x8>

00002600 <test_11>:
test_11():
    2600:	00b00e13          	li	t3,11
    2604:	00000213          	li	tp,0
    2608:	00000093          	li	ra,0
    260c:	fff00113          	li	sp,-1
    2610:	00000013          	nop
    2614:	00000013          	nop
    2618:	18208a63          	beq	ra,sp,27ac <fail>
    261c:	00120213          	addi	tp,tp,1 # 1 <reset_vec+0x1>
    2620:	00200293          	li	t0,2
    2624:	fe5212e3          	bne	tp,t0,2608 <test_11+0x8>

00002628 <test_12>:
test_12():
    2628:	00c00e13          	li	t3,12
    262c:	00000213          	li	tp,0
    2630:	00000093          	li	ra,0
    2634:	00000013          	nop
    2638:	fff00113          	li	sp,-1
    263c:	16208863          	beq	ra,sp,27ac <fail>
    2640:	00120213          	addi	tp,tp,1 # 1 <reset_vec+0x1>
    2644:	00200293          	li	t0,2
    2648:	fe5214e3          	bne	tp,t0,2630 <test_12+0x8>

0000264c <test_13>:
test_13():
    264c:	00d00e13          	li	t3,13
    2650:	00000213          	li	tp,0
    2654:	00000093          	li	ra,0
    2658:	00000013          	nop
    265c:	fff00113          	li	sp,-1
    2660:	00000013          	nop
    2664:	14208463          	beq	ra,sp,27ac <fail>
    2668:	00120213          	addi	tp,tp,1 # 1 <reset_vec+0x1>
    266c:	00200293          	li	t0,2
    2670:	fe5212e3          	bne	tp,t0,2654 <test_13+0x8>

00002674 <test_14>:
test_14():
    2674:	00e00e13          	li	t3,14
    2678:	00000213          	li	tp,0
    267c:	00000093          	li	ra,0
    2680:	00000013          	nop
    2684:	00000013          	nop
    2688:	fff00113          	li	sp,-1
    268c:	12208063          	beq	ra,sp,27ac <fail>
    2690:	00120213          	addi	tp,tp,1 # 1 <reset_vec+0x1>
    2694:	00200293          	li	t0,2
    2698:	fe5212e3          	bne	tp,t0,267c <test_14+0x8>

0000269c <test_15>:
test_15():
    269c:	00f00e13          	li	t3,15
    26a0:	00000213          	li	tp,0
    26a4:	00000093          	li	ra,0
    26a8:	fff00113          	li	sp,-1
    26ac:	10208063          	beq	ra,sp,27ac <fail>
    26b0:	00120213          	addi	tp,tp,1 # 1 <reset_vec+0x1>
    26b4:	00200293          	li	t0,2
    26b8:	fe5216e3          	bne	tp,t0,26a4 <test_15+0x8>

000026bc <test_16>:
test_16():
    26bc:	01000e13          	li	t3,16
    26c0:	00000213          	li	tp,0
    26c4:	00000093          	li	ra,0
    26c8:	fff00113          	li	sp,-1
    26cc:	00000013          	nop
    26d0:	0c208e63          	beq	ra,sp,27ac <fail>
    26d4:	00120213          	addi	tp,tp,1 # 1 <reset_vec+0x1>
    26d8:	00200293          	li	t0,2
    26dc:	fe5214e3          	bne	tp,t0,26c4 <test_16+0x8>

000026e0 <test_17>:
test_17():
    26e0:	01100e13          	li	t3,17
    26e4:	00000213          	li	tp,0
    26e8:	00000093          	li	ra,0
    26ec:	fff00113          	li	sp,-1
    26f0:	00000013          	nop
    26f4:	00000013          	nop
    26f8:	0a208a63          	beq	ra,sp,27ac <fail>
    26fc:	00120213          	addi	tp,tp,1 # 1 <reset_vec+0x1>
    2700:	00200293          	li	t0,2
    2704:	fe5212e3          	bne	tp,t0,26e8 <test_17+0x8>

00002708 <test_18>:
test_18():
    2708:	01200e13          	li	t3,18
    270c:	00000213          	li	tp,0
    2710:	00000093          	li	ra,0
    2714:	00000013          	nop
    2718:	fff00113          	li	sp,-1
    271c:	08208863          	beq	ra,sp,27ac <fail>
    2720:	00120213          	addi	tp,tp,1 # 1 <reset_vec+0x1>
    2724:	00200293          	li	t0,2
    2728:	fe5214e3          	bne	tp,t0,2710 <test_18+0x8>

0000272c <test_19>:
test_19():
    272c:	01300e13          	li	t3,19
    2730:	00000213          	li	tp,0
    2734:	00000093          	li	ra,0
    2738:	00000013          	nop
    273c:	fff00113          	li	sp,-1
    2740:	00000013          	nop
    2744:	06208463          	beq	ra,sp,27ac <fail>
    2748:	00120213          	addi	tp,tp,1 # 1 <reset_vec+0x1>
    274c:	00200293          	li	t0,2
    2750:	fe5212e3          	bne	tp,t0,2734 <test_19+0x8>

00002754 <test_20>:
test_20():
    2754:	01400e13          	li	t3,20
    2758:	00000213          	li	tp,0
    275c:	00000093          	li	ra,0
    2760:	00000013          	nop
    2764:	00000013          	nop
    2768:	fff00113          	li	sp,-1
    276c:	04208063          	beq	ra,sp,27ac <fail>
    2770:	00120213          	addi	tp,tp,1 # 1 <reset_vec+0x1>
    2774:	00200293          	li	t0,2
    2778:	fe5212e3          	bne	tp,t0,275c <test_20+0x8>

0000277c <test_21>:
test_21():
    277c:	00100093          	li	ra,1
    2780:	00000a63          	beqz	zero,2794 <test_21+0x18>
    2784:	00108093          	addi	ra,ra,1
    2788:	00108093          	addi	ra,ra,1
    278c:	00108093          	addi	ra,ra,1
    2790:	00108093          	addi	ra,ra,1
    2794:	00108093          	addi	ra,ra,1
    2798:	00108093          	addi	ra,ra,1
    279c:	00300e93          	li	t4,3
    27a0:	01500e13          	li	t3,21
    27a4:	01d09463          	bne	ra,t4,27ac <fail>
    27a8:	03c01a63          	bne	zero,t3,27dc <pass>

000027ac <fail>:
fail():
    27ac:	10000537          	lui	a0,0x10000
    27b0:	04500593          	li	a1,69
    27b4:	05200613          	li	a2,82
    27b8:	04f00693          	li	a3,79
    27bc:	00a00713          	li	a4,10
    27c0:	00b52023          	sw	a1,0(a0) # 10000000 <end+0xfff2fb2>
    27c4:	00c52023          	sw	a2,0(a0)
    27c8:	00c52023          	sw	a2,0(a0)
    27cc:	00d52023          	sw	a3,0(a0)
    27d0:	00c52023          	sw	a2,0(a0)
    27d4:	00e52023          	sw	a4,0(a0)
    27d8:	00100073          	ebreak

000027dc <pass>:
pass():
    27dc:	10000537          	lui	a0,0x10000
    27e0:	04f00593          	li	a1,79
    27e4:	04b00613          	li	a2,75
    27e8:	00a00693          	li	a3,10
    27ec:	00b52023          	sw	a1,0(a0) # 10000000 <end+0xfff2fb2>
    27f0:	00c52023          	sw	a2,0(a0)
    27f4:	00d52023          	sw	a3,0(a0)
    27f8:	ccffd06f          	j	4c6 <add_ret>

000027fc <bge>:
bge():
    27fc:	00003537          	lui	a0,0x3
    2800:	81c50513          	addi	a0,a0,-2020 # 281c <.test_name>
    2804:	10000637          	lui	a2,0x10000

00002808 <.prname_next>:
.prname_next():
    2808:	00050583          	lb	a1,0(a0)
    280c:	00058a63          	beqz	a1,2820 <.prname_done>
    2810:	00b62023          	sw	a1,0(a2) # 10000000 <end+0xfff2fb2>
    2814:	00150513          	addi	a0,a0,1
    2818:	ff1ff06f          	j	2808 <.prname_next>

0000281c <.test_name>:
.test_name():
    281c:	6762                	.insn	2, 0x6762
    281e:	0065                	.insn	2, 0x0065

00002820 <.prname_done>:
.prname_done():
    2820:	02e00593          	li	a1,46
    2824:	00b62023          	sw	a1,0(a2)
    2828:	00b62023          	sw	a1,0(a2)

0000282c <test_2>:
test_2():
    282c:	00200e13          	li	t3,2
    2830:	00000093          	li	ra,0
    2834:	00000113          	li	sp,0
    2838:	0020d663          	bge	ra,sp,2844 <test_2+0x18>
    283c:	31c01863          	bne	zero,t3,2b4c <fail>
    2840:	01c01663          	bne	zero,t3,284c <test_3>
    2844:	fe20dee3          	bge	ra,sp,2840 <test_2+0x14>
    2848:	31c01263          	bne	zero,t3,2b4c <fail>

0000284c <test_3>:
test_3():
    284c:	00300e13          	li	t3,3
    2850:	00100093          	li	ra,1
    2854:	00100113          	li	sp,1
    2858:	0020d663          	bge	ra,sp,2864 <test_3+0x18>
    285c:	2fc01863          	bne	zero,t3,2b4c <fail>
    2860:	01c01663          	bne	zero,t3,286c <test_4>
    2864:	fe20dee3          	bge	ra,sp,2860 <test_3+0x14>
    2868:	2fc01263          	bne	zero,t3,2b4c <fail>

0000286c <test_4>:
test_4():
    286c:	00400e13          	li	t3,4
    2870:	fff00093          	li	ra,-1
    2874:	fff00113          	li	sp,-1
    2878:	0020d663          	bge	ra,sp,2884 <test_4+0x18>
    287c:	2dc01863          	bne	zero,t3,2b4c <fail>
    2880:	01c01663          	bne	zero,t3,288c <test_5>
    2884:	fe20dee3          	bge	ra,sp,2880 <test_4+0x14>
    2888:	2dc01263          	bne	zero,t3,2b4c <fail>

0000288c <test_5>:
test_5():
    288c:	00500e13          	li	t3,5
    2890:	00100093          	li	ra,1
    2894:	00000113          	li	sp,0
    2898:	0020d663          	bge	ra,sp,28a4 <test_5+0x18>
    289c:	2bc01863          	bne	zero,t3,2b4c <fail>
    28a0:	01c01663          	bne	zero,t3,28ac <test_6>
    28a4:	fe20dee3          	bge	ra,sp,28a0 <test_5+0x14>
    28a8:	2bc01263          	bne	zero,t3,2b4c <fail>

000028ac <test_6>:
test_6():
    28ac:	00600e13          	li	t3,6
    28b0:	00100093          	li	ra,1
    28b4:	fff00113          	li	sp,-1
    28b8:	0020d663          	bge	ra,sp,28c4 <test_6+0x18>
    28bc:	29c01863          	bne	zero,t3,2b4c <fail>
    28c0:	01c01663          	bne	zero,t3,28cc <test_7>
    28c4:	fe20dee3          	bge	ra,sp,28c0 <test_6+0x14>
    28c8:	29c01263          	bne	zero,t3,2b4c <fail>

000028cc <test_7>:
test_7():
    28cc:	00700e13          	li	t3,7
    28d0:	fff00093          	li	ra,-1
    28d4:	ffe00113          	li	sp,-2
    28d8:	0020d663          	bge	ra,sp,28e4 <test_7+0x18>
    28dc:	27c01863          	bne	zero,t3,2b4c <fail>
    28e0:	01c01663          	bne	zero,t3,28ec <test_8>
    28e4:	fe20dee3          	bge	ra,sp,28e0 <test_7+0x14>
    28e8:	27c01263          	bne	zero,t3,2b4c <fail>

000028ec <test_8>:
test_8():
    28ec:	00800e13          	li	t3,8
    28f0:	00000093          	li	ra,0
    28f4:	00100113          	li	sp,1
    28f8:	0020d463          	bge	ra,sp,2900 <test_8+0x14>
    28fc:	01c01463          	bne	zero,t3,2904 <test_8+0x18>
    2900:	25c01663          	bne	zero,t3,2b4c <fail>
    2904:	fe20dee3          	bge	ra,sp,2900 <test_8+0x14>

00002908 <test_9>:
test_9():
    2908:	00900e13          	li	t3,9
    290c:	fff00093          	li	ra,-1
    2910:	00100113          	li	sp,1
    2914:	0020d463          	bge	ra,sp,291c <test_9+0x14>
    2918:	01c01463          	bne	zero,t3,2920 <test_9+0x18>
    291c:	23c01863          	bne	zero,t3,2b4c <fail>
    2920:	fe20dee3          	bge	ra,sp,291c <test_9+0x14>

00002924 <test_10>:
test_10():
    2924:	00a00e13          	li	t3,10
    2928:	ffe00093          	li	ra,-2
    292c:	fff00113          	li	sp,-1
    2930:	0020d463          	bge	ra,sp,2938 <test_10+0x14>
    2934:	01c01463          	bne	zero,t3,293c <test_10+0x18>
    2938:	21c01a63          	bne	zero,t3,2b4c <fail>
    293c:	fe20dee3          	bge	ra,sp,2938 <test_10+0x14>

00002940 <test_11>:
test_11():
    2940:	00b00e13          	li	t3,11
    2944:	ffe00093          	li	ra,-2
    2948:	00100113          	li	sp,1
    294c:	0020d463          	bge	ra,sp,2954 <test_11+0x14>
    2950:	01c01463          	bne	zero,t3,2958 <test_11+0x18>
    2954:	1fc01c63          	bne	zero,t3,2b4c <fail>
    2958:	fe20dee3          	bge	ra,sp,2954 <test_11+0x14>

0000295c <test_12>:
test_12():
    295c:	00c00e13          	li	t3,12
    2960:	00000213          	li	tp,0
    2964:	fff00093          	li	ra,-1
    2968:	00000113          	li	sp,0
    296c:	1e20d063          	bge	ra,sp,2b4c <fail>
    2970:	00120213          	addi	tp,tp,1 # 1 <reset_vec+0x1>
    2974:	00200293          	li	t0,2
    2978:	fe5216e3          	bne	tp,t0,2964 <test_12+0x8>

0000297c <test_13>:
test_13():
    297c:	00d00e13          	li	t3,13
    2980:	00000213          	li	tp,0
    2984:	fff00093          	li	ra,-1
    2988:	00000113          	li	sp,0
    298c:	00000013          	nop
    2990:	1a20de63          	bge	ra,sp,2b4c <fail>
    2994:	00120213          	addi	tp,tp,1 # 1 <reset_vec+0x1>
    2998:	00200293          	li	t0,2
    299c:	fe5214e3          	bne	tp,t0,2984 <test_13+0x8>

000029a0 <test_14>:
test_14():
    29a0:	00e00e13          	li	t3,14
    29a4:	00000213          	li	tp,0
    29a8:	fff00093          	li	ra,-1
    29ac:	00000113          	li	sp,0
    29b0:	00000013          	nop
    29b4:	00000013          	nop
    29b8:	1820da63          	bge	ra,sp,2b4c <fail>
    29bc:	00120213          	addi	tp,tp,1 # 1 <reset_vec+0x1>
    29c0:	00200293          	li	t0,2
    29c4:	fe5212e3          	bne	tp,t0,29a8 <test_14+0x8>

000029c8 <test_15>:
test_15():
    29c8:	00f00e13          	li	t3,15
    29cc:	00000213          	li	tp,0
    29d0:	fff00093          	li	ra,-1
    29d4:	00000013          	nop
    29d8:	00000113          	li	sp,0
    29dc:	1620d863          	bge	ra,sp,2b4c <fail>
    29e0:	00120213          	addi	tp,tp,1 # 1 <reset_vec+0x1>
    29e4:	00200293          	li	t0,2
    29e8:	fe5214e3          	bne	tp,t0,29d0 <test_15+0x8>

000029ec <test_16>:
test_16():
    29ec:	01000e13          	li	t3,16
    29f0:	00000213          	li	tp,0
    29f4:	fff00093          	li	ra,-1
    29f8:	00000013          	nop
    29fc:	00000113          	li	sp,0
    2a00:	00000013          	nop
    2a04:	1420d463          	bge	ra,sp,2b4c <fail>
    2a08:	00120213          	addi	tp,tp,1 # 1 <reset_vec+0x1>
    2a0c:	00200293          	li	t0,2
    2a10:	fe5212e3          	bne	tp,t0,29f4 <test_16+0x8>

00002a14 <test_17>:
test_17():
    2a14:	01100e13          	li	t3,17
    2a18:	00000213          	li	tp,0
    2a1c:	fff00093          	li	ra,-1
    2a20:	00000013          	nop
    2a24:	00000013          	nop
    2a28:	00000113          	li	sp,0
    2a2c:	1220d063          	bge	ra,sp,2b4c <fail>
    2a30:	00120213          	addi	tp,tp,1 # 1 <reset_vec+0x1>
    2a34:	00200293          	li	t0,2
    2a38:	fe5212e3          	bne	tp,t0,2a1c <test_17+0x8>

00002a3c <test_18>:
test_18():
    2a3c:	01200e13          	li	t3,18
    2a40:	00000213          	li	tp,0
    2a44:	fff00093          	li	ra,-1
    2a48:	00000113          	li	sp,0
    2a4c:	1020d063          	bge	ra,sp,2b4c <fail>
    2a50:	00120213          	addi	tp,tp,1 # 1 <reset_vec+0x1>
    2a54:	00200293          	li	t0,2
    2a58:	fe5216e3          	bne	tp,t0,2a44 <test_18+0x8>

00002a5c <test_19>:
test_19():
    2a5c:	01300e13          	li	t3,19
    2a60:	00000213          	li	tp,0
    2a64:	fff00093          	li	ra,-1
    2a68:	00000113          	li	sp,0
    2a6c:	00000013          	nop
    2a70:	0c20de63          	bge	ra,sp,2b4c <fail>
    2a74:	00120213          	addi	tp,tp,1 # 1 <reset_vec+0x1>
    2a78:	00200293          	li	t0,2
    2a7c:	fe5214e3          	bne	tp,t0,2a64 <test_19+0x8>

00002a80 <test_20>:
test_20():
    2a80:	01400e13          	li	t3,20
    2a84:	00000213          	li	tp,0
    2a88:	fff00093          	li	ra,-1
    2a8c:	00000113          	li	sp,0
    2a90:	00000013          	nop
    2a94:	00000013          	nop
    2a98:	0a20da63          	bge	ra,sp,2b4c <fail>
    2a9c:	00120213          	addi	tp,tp,1 # 1 <reset_vec+0x1>
    2aa0:	00200293          	li	t0,2
    2aa4:	fe5212e3          	bne	tp,t0,2a88 <test_20+0x8>

00002aa8 <test_21>:
test_21():
    2aa8:	01500e13          	li	t3,21
    2aac:	00000213          	li	tp,0
    2ab0:	fff00093          	li	ra,-1
    2ab4:	00000013          	nop
    2ab8:	00000113          	li	sp,0
    2abc:	0820d863          	bge	ra,sp,2b4c <fail>
    2ac0:	00120213          	addi	tp,tp,1 # 1 <reset_vec+0x1>
    2ac4:	00200293          	li	t0,2
    2ac8:	fe5214e3          	bne	tp,t0,2ab0 <test_21+0x8>

00002acc <test_22>:
test_22():
    2acc:	01600e13          	li	t3,22
    2ad0:	00000213          	li	tp,0
    2ad4:	fff00093          	li	ra,-1
    2ad8:	00000013          	nop
    2adc:	00000113          	li	sp,0
    2ae0:	00000013          	nop
    2ae4:	0620d463          	bge	ra,sp,2b4c <fail>
    2ae8:	00120213          	addi	tp,tp,1 # 1 <reset_vec+0x1>
    2aec:	00200293          	li	t0,2
    2af0:	fe5212e3          	bne	tp,t0,2ad4 <test_22+0x8>

00002af4 <test_23>:
test_23():
    2af4:	01700e13          	li	t3,23
    2af8:	00000213          	li	tp,0
    2afc:	fff00093          	li	ra,-1
    2b00:	00000013          	nop
    2b04:	00000013          	nop
    2b08:	00000113          	li	sp,0
    2b0c:	0420d063          	bge	ra,sp,2b4c <fail>
    2b10:	00120213          	addi	tp,tp,1 # 1 <reset_vec+0x1>
    2b14:	00200293          	li	t0,2
    2b18:	fe5212e3          	bne	tp,t0,2afc <test_23+0x8>

00002b1c <test_24>:
test_24():
    2b1c:	00100093          	li	ra,1
    2b20:	0000da63          	bgez	ra,2b34 <test_24+0x18>
    2b24:	00108093          	addi	ra,ra,1
    2b28:	00108093          	addi	ra,ra,1
    2b2c:	00108093          	addi	ra,ra,1
    2b30:	00108093          	addi	ra,ra,1
    2b34:	00108093          	addi	ra,ra,1
    2b38:	00108093          	addi	ra,ra,1
    2b3c:	00300e93          	li	t4,3
    2b40:	01800e13          	li	t3,24
    2b44:	01d09463          	bne	ra,t4,2b4c <fail>
    2b48:	03c01a63          	bne	zero,t3,2b7c <pass>

00002b4c <fail>:
fail():
    2b4c:	10000537          	lui	a0,0x10000
    2b50:	04500593          	li	a1,69
    2b54:	05200613          	li	a2,82
    2b58:	04f00693          	li	a3,79
    2b5c:	00a00713          	li	a4,10
    2b60:	00b52023          	sw	a1,0(a0) # 10000000 <end+0xfff2fb2>
    2b64:	00c52023          	sw	a2,0(a0)
    2b68:	00c52023          	sw	a2,0(a0)
    2b6c:	00d52023          	sw	a3,0(a0)
    2b70:	00c52023          	sw	a2,0(a0)
    2b74:	00e52023          	sw	a4,0(a0)
    2b78:	00100073          	ebreak

00002b7c <pass>:
pass():
    2b7c:	10000537          	lui	a0,0x10000
    2b80:	04f00593          	li	a1,79
    2b84:	04b00613          	li	a2,75
    2b88:	00a00693          	li	a3,10
    2b8c:	00b52023          	sw	a1,0(a0) # 10000000 <end+0xfff2fb2>
    2b90:	00c52023          	sw	a2,0(a0)
    2b94:	00d52023          	sw	a3,0(a0)
    2b98:	92ffd06f          	j	4c6 <add_ret>

00002b9c <bgeu>:
bgeu():
    2b9c:	00003537          	lui	a0,0x3
    2ba0:	bbc50513          	addi	a0,a0,-1092 # 2bbc <.test_name>
    2ba4:	10000637          	lui	a2,0x10000

00002ba8 <.prname_next>:
.prname_next():
    2ba8:	00050583          	lb	a1,0(a0)
    2bac:	00058c63          	beqz	a1,2bc4 <.prname_done>
    2bb0:	00b62023          	sw	a1,0(a2) # 10000000 <end+0xfff2fb2>
    2bb4:	00150513          	addi	a0,a0,1
    2bb8:	ff1ff06f          	j	2ba8 <.prname_next>

00002bbc <.test_name>:
.test_name():
    2bbc:	6762                	.insn	2, 0x6762
    2bbe:	7565                	.insn	2, 0x7565
    2bc0:	0000                	.insn	2, 0x
	...

00002bc4 <.prname_done>:
.prname_done():
    2bc4:	02e00593          	li	a1,46
    2bc8:	00b62023          	sw	a1,0(a2)
    2bcc:	00b62023          	sw	a1,0(a2)

00002bd0 <test_2>:
test_2():
    2bd0:	00200e13          	li	t3,2
    2bd4:	00000093          	li	ra,0
    2bd8:	00000113          	li	sp,0
    2bdc:	0020f663          	bgeu	ra,sp,2be8 <test_2+0x18>
    2be0:	35c01263          	bne	zero,t3,2f24 <fail>
    2be4:	01c01663          	bne	zero,t3,2bf0 <test_3>
    2be8:	fe20fee3          	bgeu	ra,sp,2be4 <test_2+0x14>
    2bec:	33c01c63          	bne	zero,t3,2f24 <fail>

00002bf0 <test_3>:
test_3():
    2bf0:	00300e13          	li	t3,3
    2bf4:	00100093          	li	ra,1
    2bf8:	00100113          	li	sp,1
    2bfc:	0020f663          	bgeu	ra,sp,2c08 <test_3+0x18>
    2c00:	33c01263          	bne	zero,t3,2f24 <fail>
    2c04:	01c01663          	bne	zero,t3,2c10 <test_4>
    2c08:	fe20fee3          	bgeu	ra,sp,2c04 <test_3+0x14>
    2c0c:	31c01c63          	bne	zero,t3,2f24 <fail>

00002c10 <test_4>:
test_4():
    2c10:	00400e13          	li	t3,4
    2c14:	fff00093          	li	ra,-1
    2c18:	fff00113          	li	sp,-1
    2c1c:	0020f663          	bgeu	ra,sp,2c28 <test_4+0x18>
    2c20:	31c01263          	bne	zero,t3,2f24 <fail>
    2c24:	01c01663          	bne	zero,t3,2c30 <test_5>
    2c28:	fe20fee3          	bgeu	ra,sp,2c24 <test_4+0x14>
    2c2c:	2fc01c63          	bne	zero,t3,2f24 <fail>

00002c30 <test_5>:
test_5():
    2c30:	00500e13          	li	t3,5
    2c34:	00100093          	li	ra,1
    2c38:	00000113          	li	sp,0
    2c3c:	0020f663          	bgeu	ra,sp,2c48 <test_5+0x18>
    2c40:	2fc01263          	bne	zero,t3,2f24 <fail>
    2c44:	01c01663          	bne	zero,t3,2c50 <test_6>
    2c48:	fe20fee3          	bgeu	ra,sp,2c44 <test_5+0x14>
    2c4c:	2dc01c63          	bne	zero,t3,2f24 <fail>

00002c50 <test_6>:
test_6():
    2c50:	00600e13          	li	t3,6
    2c54:	fff00093          	li	ra,-1
    2c58:	ffe00113          	li	sp,-2
    2c5c:	0020f663          	bgeu	ra,sp,2c68 <test_6+0x18>
    2c60:	2dc01263          	bne	zero,t3,2f24 <fail>
    2c64:	01c01663          	bne	zero,t3,2c70 <test_7>
    2c68:	fe20fee3          	bgeu	ra,sp,2c64 <test_6+0x14>
    2c6c:	2bc01c63          	bne	zero,t3,2f24 <fail>

00002c70 <test_7>:
test_7():
    2c70:	00700e13          	li	t3,7
    2c74:	fff00093          	li	ra,-1
    2c78:	00000113          	li	sp,0
    2c7c:	0020f663          	bgeu	ra,sp,2c88 <test_7+0x18>
    2c80:	2bc01263          	bne	zero,t3,2f24 <fail>
    2c84:	01c01663          	bne	zero,t3,2c90 <test_8>
    2c88:	fe20fee3          	bgeu	ra,sp,2c84 <test_7+0x14>
    2c8c:	29c01c63          	bne	zero,t3,2f24 <fail>

00002c90 <test_8>:
test_8():
    2c90:	00800e13          	li	t3,8
    2c94:	00000093          	li	ra,0
    2c98:	00100113          	li	sp,1
    2c9c:	0020f463          	bgeu	ra,sp,2ca4 <test_8+0x14>
    2ca0:	01c01463          	bne	zero,t3,2ca8 <test_8+0x18>
    2ca4:	29c01063          	bne	zero,t3,2f24 <fail>
    2ca8:	fe20fee3          	bgeu	ra,sp,2ca4 <test_8+0x14>

00002cac <test_9>:
test_9():
    2cac:	00900e13          	li	t3,9
    2cb0:	ffe00093          	li	ra,-2
    2cb4:	fff00113          	li	sp,-1
    2cb8:	0020f463          	bgeu	ra,sp,2cc0 <test_9+0x14>
    2cbc:	01c01463          	bne	zero,t3,2cc4 <test_9+0x18>
    2cc0:	27c01263          	bne	zero,t3,2f24 <fail>
    2cc4:	fe20fee3          	bgeu	ra,sp,2cc0 <test_9+0x14>

00002cc8 <test_10>:
test_10():
    2cc8:	00a00e13          	li	t3,10
    2ccc:	00000093          	li	ra,0
    2cd0:	fff00113          	li	sp,-1
    2cd4:	0020f463          	bgeu	ra,sp,2cdc <test_10+0x14>
    2cd8:	01c01463          	bne	zero,t3,2ce0 <test_10+0x18>
    2cdc:	25c01463          	bne	zero,t3,2f24 <fail>
    2ce0:	fe20fee3          	bgeu	ra,sp,2cdc <test_10+0x14>

00002ce4 <test_11>:
test_11():
    2ce4:	00b00e13          	li	t3,11
    2ce8:	800000b7          	lui	ra,0x80000
    2cec:	fff08093          	addi	ra,ra,-1 # 7fffffff <end+0x7fff2fb1>
    2cf0:	80000137          	lui	sp,0x80000
    2cf4:	0020f463          	bgeu	ra,sp,2cfc <test_11+0x18>
    2cf8:	01c01463          	bne	zero,t3,2d00 <test_11+0x1c>
    2cfc:	23c01463          	bne	zero,t3,2f24 <fail>
    2d00:	fe20fee3          	bgeu	ra,sp,2cfc <test_11+0x18>

00002d04 <test_12>:
test_12():
    2d04:	00c00e13          	li	t3,12
    2d08:	00000213          	li	tp,0
    2d0c:	f00000b7          	lui	ra,0xf0000
    2d10:	fff08093          	addi	ra,ra,-1 # efffffff <end+0xefff2fb1>
    2d14:	f0000137          	lui	sp,0xf0000
    2d18:	2020f663          	bgeu	ra,sp,2f24 <fail>
    2d1c:	00120213          	addi	tp,tp,1 # 1 <reset_vec+0x1>
    2d20:	00200293          	li	t0,2
    2d24:	fe5214e3          	bne	tp,t0,2d0c <test_12+0x8>

00002d28 <test_13>:
test_13():
    2d28:	00d00e13          	li	t3,13
    2d2c:	00000213          	li	tp,0
    2d30:	f00000b7          	lui	ra,0xf0000
    2d34:	fff08093          	addi	ra,ra,-1 # efffffff <end+0xefff2fb1>
    2d38:	f0000137          	lui	sp,0xf0000
    2d3c:	00000013          	nop
    2d40:	1e20f263          	bgeu	ra,sp,2f24 <fail>
    2d44:	00120213          	addi	tp,tp,1 # 1 <reset_vec+0x1>
    2d48:	00200293          	li	t0,2
    2d4c:	fe5212e3          	bne	tp,t0,2d30 <test_13+0x8>

00002d50 <test_14>:
test_14():
    2d50:	00e00e13          	li	t3,14
    2d54:	00000213          	li	tp,0
    2d58:	f00000b7          	lui	ra,0xf0000
    2d5c:	fff08093          	addi	ra,ra,-1 # efffffff <end+0xefff2fb1>
    2d60:	f0000137          	lui	sp,0xf0000
    2d64:	00000013          	nop
    2d68:	00000013          	nop
    2d6c:	1a20fc63          	bgeu	ra,sp,2f24 <fail>
    2d70:	00120213          	addi	tp,tp,1 # 1 <reset_vec+0x1>
    2d74:	00200293          	li	t0,2
    2d78:	fe5210e3          	bne	tp,t0,2d58 <test_14+0x8>

00002d7c <test_15>:
test_15():
    2d7c:	00f00e13          	li	t3,15
    2d80:	00000213          	li	tp,0
    2d84:	f00000b7          	lui	ra,0xf0000
    2d88:	fff08093          	addi	ra,ra,-1 # efffffff <end+0xefff2fb1>
    2d8c:	00000013          	nop
    2d90:	f0000137          	lui	sp,0xf0000
    2d94:	1820f863          	bgeu	ra,sp,2f24 <fail>
    2d98:	00120213          	addi	tp,tp,1 # 1 <reset_vec+0x1>
    2d9c:	00200293          	li	t0,2
    2da0:	fe5212e3          	bne	tp,t0,2d84 <test_15+0x8>

00002da4 <test_16>:
test_16():
    2da4:	01000e13          	li	t3,16
    2da8:	00000213          	li	tp,0
    2dac:	f00000b7          	lui	ra,0xf0000
    2db0:	fff08093          	addi	ra,ra,-1 # efffffff <end+0xefff2fb1>
    2db4:	00000013          	nop
    2db8:	f0000137          	lui	sp,0xf0000
    2dbc:	00000013          	nop
    2dc0:	1620f263          	bgeu	ra,sp,2f24 <fail>
    2dc4:	00120213          	addi	tp,tp,1 # 1 <reset_vec+0x1>
    2dc8:	00200293          	li	t0,2
    2dcc:	fe5210e3          	bne	tp,t0,2dac <test_16+0x8>

00002dd0 <test_17>:
test_17():
    2dd0:	01100e13          	li	t3,17
    2dd4:	00000213          	li	tp,0
    2dd8:	f00000b7          	lui	ra,0xf0000
    2ddc:	fff08093          	addi	ra,ra,-1 # efffffff <end+0xefff2fb1>
    2de0:	00000013          	nop
    2de4:	00000013          	nop
    2de8:	f0000137          	lui	sp,0xf0000
    2dec:	1220fc63          	bgeu	ra,sp,2f24 <fail>
    2df0:	00120213          	addi	tp,tp,1 # 1 <reset_vec+0x1>
    2df4:	00200293          	li	t0,2
    2df8:	fe5210e3          	bne	tp,t0,2dd8 <test_17+0x8>

00002dfc <test_18>:
test_18():
    2dfc:	01200e13          	li	t3,18
    2e00:	00000213          	li	tp,0
    2e04:	f00000b7          	lui	ra,0xf0000
    2e08:	fff08093          	addi	ra,ra,-1 # efffffff <end+0xefff2fb1>
    2e0c:	f0000137          	lui	sp,0xf0000
    2e10:	1020fa63          	bgeu	ra,sp,2f24 <fail>
    2e14:	00120213          	addi	tp,tp,1 # 1 <reset_vec+0x1>
    2e18:	00200293          	li	t0,2
    2e1c:	fe5214e3          	bne	tp,t0,2e04 <test_18+0x8>

00002e20 <test_19>:
test_19():
    2e20:	01300e13          	li	t3,19
    2e24:	00000213          	li	tp,0
    2e28:	f00000b7          	lui	ra,0xf0000
    2e2c:	fff08093          	addi	ra,ra,-1 # efffffff <end+0xefff2fb1>
    2e30:	f0000137          	lui	sp,0xf0000
    2e34:	00000013          	nop
    2e38:	0e20f663          	bgeu	ra,sp,2f24 <fail>
    2e3c:	00120213          	addi	tp,tp,1 # 1 <reset_vec+0x1>
    2e40:	00200293          	li	t0,2
    2e44:	fe5212e3          	bne	tp,t0,2e28 <test_19+0x8>

00002e48 <test_20>:
test_20():
    2e48:	01400e13          	li	t3,20
    2e4c:	00000213          	li	tp,0
    2e50:	f00000b7          	lui	ra,0xf0000
    2e54:	fff08093          	addi	ra,ra,-1 # efffffff <end+0xefff2fb1>
    2e58:	f0000137          	lui	sp,0xf0000
    2e5c:	00000013          	nop
    2e60:	00000013          	nop
    2e64:	0c20f063          	bgeu	ra,sp,2f24 <fail>
    2e68:	00120213          	addi	tp,tp,1 # 1 <reset_vec+0x1>
    2e6c:	00200293          	li	t0,2
    2e70:	fe5210e3          	bne	tp,t0,2e50 <test_20+0x8>

00002e74 <test_21>:
test_21():
    2e74:	01500e13          	li	t3,21
    2e78:	00000213          	li	tp,0
    2e7c:	f00000b7          	lui	ra,0xf0000
    2e80:	fff08093          	addi	ra,ra,-1 # efffffff <end+0xefff2fb1>
    2e84:	00000013          	nop
    2e88:	f0000137          	lui	sp,0xf0000
    2e8c:	0820fc63          	bgeu	ra,sp,2f24 <fail>
    2e90:	00120213          	addi	tp,tp,1 # 1 <reset_vec+0x1>
    2e94:	00200293          	li	t0,2
    2e98:	fe5212e3          	bne	tp,t0,2e7c <test_21+0x8>

00002e9c <test_22>:
test_22():
    2e9c:	01600e13          	li	t3,22
    2ea0:	00000213          	li	tp,0
    2ea4:	f00000b7          	lui	ra,0xf0000
    2ea8:	fff08093          	addi	ra,ra,-1 # efffffff <end+0xefff2fb1>
    2eac:	00000013          	nop
    2eb0:	f0000137          	lui	sp,0xf0000
    2eb4:	00000013          	nop
    2eb8:	0620f663          	bgeu	ra,sp,2f24 <fail>
    2ebc:	00120213          	addi	tp,tp,1 # 1 <reset_vec+0x1>
    2ec0:	00200293          	li	t0,2
    2ec4:	fe5210e3          	bne	tp,t0,2ea4 <test_22+0x8>

00002ec8 <test_23>:
test_23():
    2ec8:	01700e13          	li	t3,23
    2ecc:	00000213          	li	tp,0
    2ed0:	f00000b7          	lui	ra,0xf0000
    2ed4:	fff08093          	addi	ra,ra,-1 # efffffff <end+0xefff2fb1>
    2ed8:	00000013          	nop
    2edc:	00000013          	nop
    2ee0:	f0000137          	lui	sp,0xf0000
    2ee4:	0420f063          	bgeu	ra,sp,2f24 <fail>
    2ee8:	00120213          	addi	tp,tp,1 # 1 <reset_vec+0x1>
    2eec:	00200293          	li	t0,2
    2ef0:	fe5210e3          	bne	tp,t0,2ed0 <test_23+0x8>

00002ef4 <test_24>:
test_24():
    2ef4:	00100093          	li	ra,1
    2ef8:	0000fa63          	bgeu	ra,zero,2f0c <test_24+0x18>
    2efc:	00108093          	addi	ra,ra,1
    2f00:	00108093          	addi	ra,ra,1
    2f04:	00108093          	addi	ra,ra,1
    2f08:	00108093          	addi	ra,ra,1
    2f0c:	00108093          	addi	ra,ra,1
    2f10:	00108093          	addi	ra,ra,1
    2f14:	00300e93          	li	t4,3
    2f18:	01800e13          	li	t3,24
    2f1c:	01d09463          	bne	ra,t4,2f24 <fail>
    2f20:	03c01a63          	bne	zero,t3,2f54 <pass>

00002f24 <fail>:
fail():
    2f24:	10000537          	lui	a0,0x10000
    2f28:	04500593          	li	a1,69
    2f2c:	05200613          	li	a2,82
    2f30:	04f00693          	li	a3,79
    2f34:	00a00713          	li	a4,10
    2f38:	00b52023          	sw	a1,0(a0) # 10000000 <end+0xfff2fb2>
    2f3c:	00c52023          	sw	a2,0(a0)
    2f40:	00c52023          	sw	a2,0(a0)
    2f44:	00d52023          	sw	a3,0(a0)
    2f48:	00c52023          	sw	a2,0(a0)
    2f4c:	00e52023          	sw	a4,0(a0)
    2f50:	00100073          	ebreak

00002f54 <pass>:
pass():
    2f54:	10000537          	lui	a0,0x10000
    2f58:	04f00593          	li	a1,79
    2f5c:	04b00613          	li	a2,75
    2f60:	00a00693          	li	a3,10
    2f64:	00b52023          	sw	a1,0(a0) # 10000000 <end+0xfff2fb2>
    2f68:	00c52023          	sw	a2,0(a0)
    2f6c:	00d52023          	sw	a3,0(a0)
    2f70:	d56fd06f          	j	4c6 <add_ret>

00002f74 <blt>:
blt():
    2f74:	00003537          	lui	a0,0x3
    2f78:	f9450513          	addi	a0,a0,-108 # 2f94 <.test_name>
    2f7c:	10000637          	lui	a2,0x10000

00002f80 <.prname_next>:
.prname_next():
    2f80:	00050583          	lb	a1,0(a0)
    2f84:	00058a63          	beqz	a1,2f98 <.prname_done>
    2f88:	00b62023          	sw	a1,0(a2) # 10000000 <end+0xfff2fb2>
    2f8c:	00150513          	addi	a0,a0,1
    2f90:	ff1ff06f          	j	2f80 <.prname_next>

00002f94 <.test_name>:
.test_name():
    2f94:	6c62                	.insn	2, 0x6c62
    2f96:	0074                	.insn	2, 0x0074

00002f98 <.prname_done>:
.prname_done():
    2f98:	02e00593          	li	a1,46
    2f9c:	00b62023          	sw	a1,0(a2)
    2fa0:	00b62023          	sw	a1,0(a2)

00002fa4 <test_2>:
test_2():
    2fa4:	00200e13          	li	t3,2
    2fa8:	00000093          	li	ra,0
    2fac:	00100113          	li	sp,1
    2fb0:	0020c663          	blt	ra,sp,2fbc <test_2+0x18>
    2fb4:	2bc01863          	bne	zero,t3,3264 <fail>
    2fb8:	01c01663          	bne	zero,t3,2fc4 <test_3>
    2fbc:	fe20cee3          	blt	ra,sp,2fb8 <test_2+0x14>
    2fc0:	2bc01263          	bne	zero,t3,3264 <fail>

00002fc4 <test_3>:
test_3():
    2fc4:	00300e13          	li	t3,3
    2fc8:	fff00093          	li	ra,-1
    2fcc:	00100113          	li	sp,1
    2fd0:	0020c663          	blt	ra,sp,2fdc <test_3+0x18>
    2fd4:	29c01863          	bne	zero,t3,3264 <fail>
    2fd8:	01c01663          	bne	zero,t3,2fe4 <test_4>
    2fdc:	fe20cee3          	blt	ra,sp,2fd8 <test_3+0x14>
    2fe0:	29c01263          	bne	zero,t3,3264 <fail>

00002fe4 <test_4>:
test_4():
    2fe4:	00400e13          	li	t3,4
    2fe8:	ffe00093          	li	ra,-2
    2fec:	fff00113          	li	sp,-1
    2ff0:	0020c663          	blt	ra,sp,2ffc <test_4+0x18>
    2ff4:	27c01863          	bne	zero,t3,3264 <fail>
    2ff8:	01c01663          	bne	zero,t3,3004 <test_5>
    2ffc:	fe20cee3          	blt	ra,sp,2ff8 <test_4+0x14>
    3000:	27c01263          	bne	zero,t3,3264 <fail>

00003004 <test_5>:
test_5():
    3004:	00500e13          	li	t3,5
    3008:	00100093          	li	ra,1
    300c:	00000113          	li	sp,0
    3010:	0020c463          	blt	ra,sp,3018 <test_5+0x14>
    3014:	01c01463          	bne	zero,t3,301c <test_5+0x18>
    3018:	25c01663          	bne	zero,t3,3264 <fail>
    301c:	fe20cee3          	blt	ra,sp,3018 <test_5+0x14>

00003020 <test_6>:
test_6():
    3020:	00600e13          	li	t3,6
    3024:	00100093          	li	ra,1
    3028:	fff00113          	li	sp,-1
    302c:	0020c463          	blt	ra,sp,3034 <test_6+0x14>
    3030:	01c01463          	bne	zero,t3,3038 <test_6+0x18>
    3034:	23c01863          	bne	zero,t3,3264 <fail>
    3038:	fe20cee3          	blt	ra,sp,3034 <test_6+0x14>

0000303c <test_7>:
test_7():
    303c:	00700e13          	li	t3,7
    3040:	fff00093          	li	ra,-1
    3044:	ffe00113          	li	sp,-2
    3048:	0020c463          	blt	ra,sp,3050 <test_7+0x14>
    304c:	01c01463          	bne	zero,t3,3054 <test_7+0x18>
    3050:	21c01a63          	bne	zero,t3,3264 <fail>
    3054:	fe20cee3          	blt	ra,sp,3050 <test_7+0x14>

00003058 <test_8>:
test_8():
    3058:	00800e13          	li	t3,8
    305c:	00100093          	li	ra,1
    3060:	ffe00113          	li	sp,-2
    3064:	0020c463          	blt	ra,sp,306c <test_8+0x14>
    3068:	01c01463          	bne	zero,t3,3070 <test_8+0x18>
    306c:	1fc01c63          	bne	zero,t3,3264 <fail>
    3070:	fe20cee3          	blt	ra,sp,306c <test_8+0x14>

00003074 <test_9>:
test_9():
    3074:	00900e13          	li	t3,9
    3078:	00000213          	li	tp,0
    307c:	00000093          	li	ra,0
    3080:	fff00113          	li	sp,-1
    3084:	1e20c063          	blt	ra,sp,3264 <fail>
    3088:	00120213          	addi	tp,tp,1 # 1 <reset_vec+0x1>
    308c:	00200293          	li	t0,2
    3090:	fe5216e3          	bne	tp,t0,307c <test_9+0x8>

00003094 <test_10>:
test_10():
    3094:	00a00e13          	li	t3,10
    3098:	00000213          	li	tp,0
    309c:	00000093          	li	ra,0
    30a0:	fff00113          	li	sp,-1
    30a4:	00000013          	nop
    30a8:	1a20ce63          	blt	ra,sp,3264 <fail>
    30ac:	00120213          	addi	tp,tp,1 # 1 <reset_vec+0x1>
    30b0:	00200293          	li	t0,2
    30b4:	fe5214e3          	bne	tp,t0,309c <test_10+0x8>

000030b8 <test_11>:
test_11():
    30b8:	00b00e13          	li	t3,11
    30bc:	00000213          	li	tp,0
    30c0:	00000093          	li	ra,0
    30c4:	fff00113          	li	sp,-1
    30c8:	00000013          	nop
    30cc:	00000013          	nop
    30d0:	1820ca63          	blt	ra,sp,3264 <fail>
    30d4:	00120213          	addi	tp,tp,1 # 1 <reset_vec+0x1>
    30d8:	00200293          	li	t0,2
    30dc:	fe5212e3          	bne	tp,t0,30c0 <test_11+0x8>

000030e0 <test_12>:
test_12():
    30e0:	00c00e13          	li	t3,12
    30e4:	00000213          	li	tp,0
    30e8:	00000093          	li	ra,0
    30ec:	00000013          	nop
    30f0:	fff00113          	li	sp,-1
    30f4:	1620c863          	blt	ra,sp,3264 <fail>
    30f8:	00120213          	addi	tp,tp,1 # 1 <reset_vec+0x1>
    30fc:	00200293          	li	t0,2
    3100:	fe5214e3          	bne	tp,t0,30e8 <test_12+0x8>

00003104 <test_13>:
test_13():
    3104:	00d00e13          	li	t3,13
    3108:	00000213          	li	tp,0
    310c:	00000093          	li	ra,0
    3110:	00000013          	nop
    3114:	fff00113          	li	sp,-1
    3118:	00000013          	nop
    311c:	1420c463          	blt	ra,sp,3264 <fail>
    3120:	00120213          	addi	tp,tp,1 # 1 <reset_vec+0x1>
    3124:	00200293          	li	t0,2
    3128:	fe5212e3          	bne	tp,t0,310c <test_13+0x8>

0000312c <test_14>:
test_14():
    312c:	00e00e13          	li	t3,14
    3130:	00000213          	li	tp,0
    3134:	00000093          	li	ra,0
    3138:	00000013          	nop
    313c:	00000013          	nop
    3140:	fff00113          	li	sp,-1
    3144:	1220c063          	blt	ra,sp,3264 <fail>
    3148:	00120213          	addi	tp,tp,1 # 1 <reset_vec+0x1>
    314c:	00200293          	li	t0,2
    3150:	fe5212e3          	bne	tp,t0,3134 <test_14+0x8>

00003154 <test_15>:
test_15():
    3154:	00f00e13          	li	t3,15
    3158:	00000213          	li	tp,0
    315c:	00000093          	li	ra,0
    3160:	fff00113          	li	sp,-1
    3164:	1020c063          	blt	ra,sp,3264 <fail>
    3168:	00120213          	addi	tp,tp,1 # 1 <reset_vec+0x1>
    316c:	00200293          	li	t0,2
    3170:	fe5216e3          	bne	tp,t0,315c <test_15+0x8>

00003174 <test_16>:
test_16():
    3174:	01000e13          	li	t3,16
    3178:	00000213          	li	tp,0
    317c:	00000093          	li	ra,0
    3180:	fff00113          	li	sp,-1
    3184:	00000013          	nop
    3188:	0c20ce63          	blt	ra,sp,3264 <fail>
    318c:	00120213          	addi	tp,tp,1 # 1 <reset_vec+0x1>
    3190:	00200293          	li	t0,2
    3194:	fe5214e3          	bne	tp,t0,317c <test_16+0x8>

00003198 <test_17>:
test_17():
    3198:	01100e13          	li	t3,17
    319c:	00000213          	li	tp,0
    31a0:	00000093          	li	ra,0
    31a4:	fff00113          	li	sp,-1
    31a8:	00000013          	nop
    31ac:	00000013          	nop
    31b0:	0a20ca63          	blt	ra,sp,3264 <fail>
    31b4:	00120213          	addi	tp,tp,1 # 1 <reset_vec+0x1>
    31b8:	00200293          	li	t0,2
    31bc:	fe5212e3          	bne	tp,t0,31a0 <test_17+0x8>

000031c0 <test_18>:
test_18():
    31c0:	01200e13          	li	t3,18
    31c4:	00000213          	li	tp,0
    31c8:	00000093          	li	ra,0
    31cc:	00000013          	nop
    31d0:	fff00113          	li	sp,-1
    31d4:	0820c863          	blt	ra,sp,3264 <fail>
    31d8:	00120213          	addi	tp,tp,1 # 1 <reset_vec+0x1>
    31dc:	00200293          	li	t0,2
    31e0:	fe5214e3          	bne	tp,t0,31c8 <test_18+0x8>

000031e4 <test_19>:
test_19():
    31e4:	01300e13          	li	t3,19
    31e8:	00000213          	li	tp,0
    31ec:	00000093          	li	ra,0
    31f0:	00000013          	nop
    31f4:	fff00113          	li	sp,-1
    31f8:	00000013          	nop
    31fc:	0620c463          	blt	ra,sp,3264 <fail>
    3200:	00120213          	addi	tp,tp,1 # 1 <reset_vec+0x1>
    3204:	00200293          	li	t0,2
    3208:	fe5212e3          	bne	tp,t0,31ec <test_19+0x8>

0000320c <test_20>:
test_20():
    320c:	01400e13          	li	t3,20
    3210:	00000213          	li	tp,0
    3214:	00000093          	li	ra,0
    3218:	00000013          	nop
    321c:	00000013          	nop
    3220:	fff00113          	li	sp,-1
    3224:	0420c063          	blt	ra,sp,3264 <fail>
    3228:	00120213          	addi	tp,tp,1 # 1 <reset_vec+0x1>
    322c:	00200293          	li	t0,2
    3230:	fe5212e3          	bne	tp,t0,3214 <test_20+0x8>

00003234 <test_21>:
test_21():
    3234:	00100093          	li	ra,1
    3238:	00104a63          	bgtz	ra,324c <test_21+0x18>
    323c:	00108093          	addi	ra,ra,1
    3240:	00108093          	addi	ra,ra,1
    3244:	00108093          	addi	ra,ra,1
    3248:	00108093          	addi	ra,ra,1
    324c:	00108093          	addi	ra,ra,1
    3250:	00108093          	addi	ra,ra,1
    3254:	00300e93          	li	t4,3
    3258:	01500e13          	li	t3,21
    325c:	01d09463          	bne	ra,t4,3264 <fail>
    3260:	03c01a63          	bne	zero,t3,3294 <pass>

00003264 <fail>:
fail():
    3264:	10000537          	lui	a0,0x10000
    3268:	04500593          	li	a1,69
    326c:	05200613          	li	a2,82
    3270:	04f00693          	li	a3,79
    3274:	00a00713          	li	a4,10
    3278:	00b52023          	sw	a1,0(a0) # 10000000 <end+0xfff2fb2>
    327c:	00c52023          	sw	a2,0(a0)
    3280:	00c52023          	sw	a2,0(a0)
    3284:	00d52023          	sw	a3,0(a0)
    3288:	00c52023          	sw	a2,0(a0)
    328c:	00e52023          	sw	a4,0(a0)
    3290:	00100073          	ebreak

00003294 <pass>:
pass():
    3294:	10000537          	lui	a0,0x10000
    3298:	04f00593          	li	a1,79
    329c:	04b00613          	li	a2,75
    32a0:	00a00693          	li	a3,10
    32a4:	00b52023          	sw	a1,0(a0) # 10000000 <end+0xfff2fb2>
    32a8:	00c52023          	sw	a2,0(a0)
    32ac:	00d52023          	sw	a3,0(a0)
    32b0:	a16fd06f          	j	4c6 <add_ret>

000032b4 <bltu>:
bltu():
    32b4:	00003537          	lui	a0,0x3
    32b8:	2d450513          	addi	a0,a0,724 # 32d4 <.test_name>
    32bc:	10000637          	lui	a2,0x10000

000032c0 <.prname_next>:
.prname_next():
    32c0:	00050583          	lb	a1,0(a0)
    32c4:	00058c63          	beqz	a1,32dc <.prname_done>
    32c8:	00b62023          	sw	a1,0(a2) # 10000000 <end+0xfff2fb2>
    32cc:	00150513          	addi	a0,a0,1
    32d0:	ff1ff06f          	j	32c0 <.prname_next>

000032d4 <.test_name>:
.test_name():
    32d4:	6c62                	.insn	2, 0x6c62
    32d6:	7574                	.insn	2, 0x7574
    32d8:	0000                	.insn	2, 0x
	...

000032dc <.prname_done>:
.prname_done():
    32dc:	02e00593          	li	a1,46
    32e0:	00b62023          	sw	a1,0(a2)
    32e4:	00b62023          	sw	a1,0(a2)

000032e8 <test_2>:
test_2():
    32e8:	00200e13          	li	t3,2
    32ec:	00000093          	li	ra,0
    32f0:	00100113          	li	sp,1
    32f4:	0020e663          	bltu	ra,sp,3300 <test_2+0x18>
    32f8:	2fc01263          	bne	zero,t3,35dc <fail>
    32fc:	01c01663          	bne	zero,t3,3308 <test_3>
    3300:	fe20eee3          	bltu	ra,sp,32fc <test_2+0x14>
    3304:	2dc01c63          	bne	zero,t3,35dc <fail>

00003308 <test_3>:
test_3():
    3308:	00300e13          	li	t3,3
    330c:	ffe00093          	li	ra,-2
    3310:	fff00113          	li	sp,-1
    3314:	0020e663          	bltu	ra,sp,3320 <test_3+0x18>
    3318:	2dc01263          	bne	zero,t3,35dc <fail>
    331c:	01c01663          	bne	zero,t3,3328 <test_4>
    3320:	fe20eee3          	bltu	ra,sp,331c <test_3+0x14>
    3324:	2bc01c63          	bne	zero,t3,35dc <fail>

00003328 <test_4>:
test_4():
    3328:	00400e13          	li	t3,4
    332c:	00000093          	li	ra,0
    3330:	fff00113          	li	sp,-1
    3334:	0020e663          	bltu	ra,sp,3340 <test_4+0x18>
    3338:	2bc01263          	bne	zero,t3,35dc <fail>
    333c:	01c01663          	bne	zero,t3,3348 <test_5>
    3340:	fe20eee3          	bltu	ra,sp,333c <test_4+0x14>
    3344:	29c01c63          	bne	zero,t3,35dc <fail>

00003348 <test_5>:
test_5():
    3348:	00500e13          	li	t3,5
    334c:	00100093          	li	ra,1
    3350:	00000113          	li	sp,0
    3354:	0020e463          	bltu	ra,sp,335c <test_5+0x14>
    3358:	01c01463          	bne	zero,t3,3360 <test_5+0x18>
    335c:	29c01063          	bne	zero,t3,35dc <fail>
    3360:	fe20eee3          	bltu	ra,sp,335c <test_5+0x14>

00003364 <test_6>:
test_6():
    3364:	00600e13          	li	t3,6
    3368:	fff00093          	li	ra,-1
    336c:	ffe00113          	li	sp,-2
    3370:	0020e463          	bltu	ra,sp,3378 <test_6+0x14>
    3374:	01c01463          	bne	zero,t3,337c <test_6+0x18>
    3378:	27c01263          	bne	zero,t3,35dc <fail>
    337c:	fe20eee3          	bltu	ra,sp,3378 <test_6+0x14>

00003380 <test_7>:
test_7():
    3380:	00700e13          	li	t3,7
    3384:	fff00093          	li	ra,-1
    3388:	00000113          	li	sp,0
    338c:	0020e463          	bltu	ra,sp,3394 <test_7+0x14>
    3390:	01c01463          	bne	zero,t3,3398 <test_7+0x18>
    3394:	25c01463          	bne	zero,t3,35dc <fail>
    3398:	fe20eee3          	bltu	ra,sp,3394 <test_7+0x14>

0000339c <test_8>:
test_8():
    339c:	00800e13          	li	t3,8
    33a0:	800000b7          	lui	ra,0x80000
    33a4:	80000137          	lui	sp,0x80000
    33a8:	fff10113          	addi	sp,sp,-1 # 7fffffff <end+0x7fff2fb1>
    33ac:	0020e463          	bltu	ra,sp,33b4 <test_8+0x18>
    33b0:	01c01463          	bne	zero,t3,33b8 <test_8+0x1c>
    33b4:	23c01463          	bne	zero,t3,35dc <fail>
    33b8:	fe20eee3          	bltu	ra,sp,33b4 <test_8+0x18>

000033bc <test_9>:
test_9():
    33bc:	00900e13          	li	t3,9
    33c0:	00000213          	li	tp,0
    33c4:	f00000b7          	lui	ra,0xf0000
    33c8:	f0000137          	lui	sp,0xf0000
    33cc:	fff10113          	addi	sp,sp,-1 # efffffff <end+0xefff2fb1>
    33d0:	2020e663          	bltu	ra,sp,35dc <fail>
    33d4:	00120213          	addi	tp,tp,1 # 1 <reset_vec+0x1>
    33d8:	00200293          	li	t0,2
    33dc:	fe5214e3          	bne	tp,t0,33c4 <test_9+0x8>

000033e0 <test_10>:
test_10():
    33e0:	00a00e13          	li	t3,10
    33e4:	00000213          	li	tp,0
    33e8:	f00000b7          	lui	ra,0xf0000
    33ec:	f0000137          	lui	sp,0xf0000
    33f0:	fff10113          	addi	sp,sp,-1 # efffffff <end+0xefff2fb1>
    33f4:	00000013          	nop
    33f8:	1e20e263          	bltu	ra,sp,35dc <fail>
    33fc:	00120213          	addi	tp,tp,1 # 1 <reset_vec+0x1>
    3400:	00200293          	li	t0,2
    3404:	fe5212e3          	bne	tp,t0,33e8 <test_10+0x8>

00003408 <test_11>:
test_11():
    3408:	00b00e13          	li	t3,11
    340c:	00000213          	li	tp,0
    3410:	f00000b7          	lui	ra,0xf0000
    3414:	f0000137          	lui	sp,0xf0000
    3418:	fff10113          	addi	sp,sp,-1 # efffffff <end+0xefff2fb1>
    341c:	00000013          	nop
    3420:	00000013          	nop
    3424:	1a20ec63          	bltu	ra,sp,35dc <fail>
    3428:	00120213          	addi	tp,tp,1 # 1 <reset_vec+0x1>
    342c:	00200293          	li	t0,2
    3430:	fe5210e3          	bne	tp,t0,3410 <test_11+0x8>

00003434 <test_12>:
test_12():
    3434:	00c00e13          	li	t3,12
    3438:	00000213          	li	tp,0
    343c:	f00000b7          	lui	ra,0xf0000
    3440:	00000013          	nop
    3444:	f0000137          	lui	sp,0xf0000
    3448:	fff10113          	addi	sp,sp,-1 # efffffff <end+0xefff2fb1>
    344c:	1820e863          	bltu	ra,sp,35dc <fail>
    3450:	00120213          	addi	tp,tp,1 # 1 <reset_vec+0x1>
    3454:	00200293          	li	t0,2
    3458:	fe5212e3          	bne	tp,t0,343c <test_12+0x8>

0000345c <test_13>:
test_13():
    345c:	00d00e13          	li	t3,13
    3460:	00000213          	li	tp,0
    3464:	f00000b7          	lui	ra,0xf0000
    3468:	00000013          	nop
    346c:	f0000137          	lui	sp,0xf0000
    3470:	fff10113          	addi	sp,sp,-1 # efffffff <end+0xefff2fb1>
    3474:	00000013          	nop
    3478:	1620e263          	bltu	ra,sp,35dc <fail>
    347c:	00120213          	addi	tp,tp,1 # 1 <reset_vec+0x1>
    3480:	00200293          	li	t0,2
    3484:	fe5210e3          	bne	tp,t0,3464 <test_13+0x8>

00003488 <test_14>:
test_14():
    3488:	00e00e13          	li	t3,14
    348c:	00000213          	li	tp,0
    3490:	f00000b7          	lui	ra,0xf0000
    3494:	00000013          	nop
    3498:	00000013          	nop
    349c:	f0000137          	lui	sp,0xf0000
    34a0:	fff10113          	addi	sp,sp,-1 # efffffff <end+0xefff2fb1>
    34a4:	1220ec63          	bltu	ra,sp,35dc <fail>
    34a8:	00120213          	addi	tp,tp,1 # 1 <reset_vec+0x1>
    34ac:	00200293          	li	t0,2
    34b0:	fe5210e3          	bne	tp,t0,3490 <test_14+0x8>

000034b4 <test_15>:
test_15():
    34b4:	00f00e13          	li	t3,15
    34b8:	00000213          	li	tp,0
    34bc:	f00000b7          	lui	ra,0xf0000
    34c0:	f0000137          	lui	sp,0xf0000
    34c4:	fff10113          	addi	sp,sp,-1 # efffffff <end+0xefff2fb1>
    34c8:	1020ea63          	bltu	ra,sp,35dc <fail>
    34cc:	00120213          	addi	tp,tp,1 # 1 <reset_vec+0x1>
    34d0:	00200293          	li	t0,2
    34d4:	fe5214e3          	bne	tp,t0,34bc <test_15+0x8>

000034d8 <test_16>:
test_16():
    34d8:	01000e13          	li	t3,16
    34dc:	00000213          	li	tp,0
    34e0:	f00000b7          	lui	ra,0xf0000
    34e4:	f0000137          	lui	sp,0xf0000
    34e8:	fff10113          	addi	sp,sp,-1 # efffffff <end+0xefff2fb1>
    34ec:	00000013          	nop
    34f0:	0e20e663          	bltu	ra,sp,35dc <fail>
    34f4:	00120213          	addi	tp,tp,1 # 1 <reset_vec+0x1>
    34f8:	00200293          	li	t0,2
    34fc:	fe5212e3          	bne	tp,t0,34e0 <test_16+0x8>

00003500 <test_17>:
test_17():
    3500:	01100e13          	li	t3,17
    3504:	00000213          	li	tp,0
    3508:	f00000b7          	lui	ra,0xf0000
    350c:	f0000137          	lui	sp,0xf0000
    3510:	fff10113          	addi	sp,sp,-1 # efffffff <end+0xefff2fb1>
    3514:	00000013          	nop
    3518:	00000013          	nop
    351c:	0c20e063          	bltu	ra,sp,35dc <fail>
    3520:	00120213          	addi	tp,tp,1 # 1 <reset_vec+0x1>
    3524:	00200293          	li	t0,2
    3528:	fe5210e3          	bne	tp,t0,3508 <test_17+0x8>

0000352c <test_18>:
test_18():
    352c:	01200e13          	li	t3,18
    3530:	00000213          	li	tp,0
    3534:	f00000b7          	lui	ra,0xf0000
    3538:	00000013          	nop
    353c:	f0000137          	lui	sp,0xf0000
    3540:	fff10113          	addi	sp,sp,-1 # efffffff <end+0xefff2fb1>
    3544:	0820ec63          	bltu	ra,sp,35dc <fail>
    3548:	00120213          	addi	tp,tp,1 # 1 <reset_vec+0x1>
    354c:	00200293          	li	t0,2
    3550:	fe5212e3          	bne	tp,t0,3534 <test_18+0x8>

00003554 <test_19>:
test_19():
    3554:	01300e13          	li	t3,19
    3558:	00000213          	li	tp,0
    355c:	f00000b7          	lui	ra,0xf0000
    3560:	00000013          	nop
    3564:	f0000137          	lui	sp,0xf0000
    3568:	fff10113          	addi	sp,sp,-1 # efffffff <end+0xefff2fb1>
    356c:	00000013          	nop
    3570:	0620e663          	bltu	ra,sp,35dc <fail>
    3574:	00120213          	addi	tp,tp,1 # 1 <reset_vec+0x1>
    3578:	00200293          	li	t0,2
    357c:	fe5210e3          	bne	tp,t0,355c <test_19+0x8>

00003580 <test_20>:
test_20():
    3580:	01400e13          	li	t3,20
    3584:	00000213          	li	tp,0
    3588:	f00000b7          	lui	ra,0xf0000
    358c:	00000013          	nop
    3590:	00000013          	nop
    3594:	f0000137          	lui	sp,0xf0000
    3598:	fff10113          	addi	sp,sp,-1 # efffffff <end+0xefff2fb1>
    359c:	0420e063          	bltu	ra,sp,35dc <fail>
    35a0:	00120213          	addi	tp,tp,1 # 1 <reset_vec+0x1>
    35a4:	00200293          	li	t0,2
    35a8:	fe5210e3          	bne	tp,t0,3588 <test_20+0x8>

000035ac <test_21>:
test_21():
    35ac:	00100093          	li	ra,1
    35b0:	00106a63          	bltu	zero,ra,35c4 <test_21+0x18>
    35b4:	00108093          	addi	ra,ra,1 # f0000001 <end+0xefff2fb3>
    35b8:	00108093          	addi	ra,ra,1
    35bc:	00108093          	addi	ra,ra,1
    35c0:	00108093          	addi	ra,ra,1
    35c4:	00108093          	addi	ra,ra,1
    35c8:	00108093          	addi	ra,ra,1
    35cc:	00300e93          	li	t4,3
    35d0:	01500e13          	li	t3,21
    35d4:	01d09463          	bne	ra,t4,35dc <fail>
    35d8:	03c01a63          	bne	zero,t3,360c <pass>

000035dc <fail>:
fail():
    35dc:	10000537          	lui	a0,0x10000
    35e0:	04500593          	li	a1,69
    35e4:	05200613          	li	a2,82
    35e8:	04f00693          	li	a3,79
    35ec:	00a00713          	li	a4,10
    35f0:	00b52023          	sw	a1,0(a0) # 10000000 <end+0xfff2fb2>
    35f4:	00c52023          	sw	a2,0(a0)
    35f8:	00c52023          	sw	a2,0(a0)
    35fc:	00d52023          	sw	a3,0(a0)
    3600:	00c52023          	sw	a2,0(a0)
    3604:	00e52023          	sw	a4,0(a0)
    3608:	00100073          	ebreak

0000360c <pass>:
pass():
    360c:	10000537          	lui	a0,0x10000
    3610:	04f00593          	li	a1,79
    3614:	04b00613          	li	a2,75
    3618:	00a00693          	li	a3,10
    361c:	00b52023          	sw	a1,0(a0) # 10000000 <end+0xfff2fb2>
    3620:	00c52023          	sw	a2,0(a0)
    3624:	00d52023          	sw	a3,0(a0)
    3628:	e9ffc06f          	j	4c6 <add_ret>

0000362c <bne>:
bne():
    362c:	00003537          	lui	a0,0x3
    3630:	64c50513          	addi	a0,a0,1612 # 364c <.test_name>
    3634:	10000637          	lui	a2,0x10000

00003638 <.prname_next>:
.prname_next():
    3638:	00050583          	lb	a1,0(a0)
    363c:	00058a63          	beqz	a1,3650 <.prname_done>
    3640:	00b62023          	sw	a1,0(a2) # 10000000 <end+0xfff2fb2>
    3644:	00150513          	addi	a0,a0,1
    3648:	ff1ff06f          	j	3638 <.prname_next>

0000364c <.test_name>:
.test_name():
    364c:	6e62                	.insn	2, 0x6e62
    364e:	0065                	.insn	2, 0x0065

00003650 <.prname_done>:
.prname_done():
    3650:	02e00593          	li	a1,46
    3654:	00b62023          	sw	a1,0(a2)
    3658:	00b62023          	sw	a1,0(a2)

0000365c <test_2>:
test_2():
    365c:	00200e13          	li	t3,2
    3660:	00000093          	li	ra,0
    3664:	00100113          	li	sp,1
    3668:	00209663          	bne	ra,sp,3674 <test_2+0x18>
    366c:	2bc01a63          	bne	zero,t3,3920 <fail>
    3670:	01c01663          	bne	zero,t3,367c <test_3>
    3674:	fe209ee3          	bne	ra,sp,3670 <test_2+0x14>
    3678:	2bc01463          	bne	zero,t3,3920 <fail>

0000367c <test_3>:
test_3():
    367c:	00300e13          	li	t3,3
    3680:	00100093          	li	ra,1
    3684:	00000113          	li	sp,0
    3688:	00209663          	bne	ra,sp,3694 <test_3+0x18>
    368c:	29c01a63          	bne	zero,t3,3920 <fail>
    3690:	01c01663          	bne	zero,t3,369c <test_4>
    3694:	fe209ee3          	bne	ra,sp,3690 <test_3+0x14>
    3698:	29c01463          	bne	zero,t3,3920 <fail>

0000369c <test_4>:
test_4():
    369c:	00400e13          	li	t3,4
    36a0:	fff00093          	li	ra,-1
    36a4:	00100113          	li	sp,1
    36a8:	00209663          	bne	ra,sp,36b4 <test_4+0x18>
    36ac:	27c01a63          	bne	zero,t3,3920 <fail>
    36b0:	01c01663          	bne	zero,t3,36bc <test_5>
    36b4:	fe209ee3          	bne	ra,sp,36b0 <test_4+0x14>
    36b8:	27c01463          	bne	zero,t3,3920 <fail>

000036bc <test_5>:
test_5():
    36bc:	00500e13          	li	t3,5
    36c0:	00100093          	li	ra,1
    36c4:	fff00113          	li	sp,-1
    36c8:	00209663          	bne	ra,sp,36d4 <test_5+0x18>
    36cc:	25c01a63          	bne	zero,t3,3920 <fail>
    36d0:	01c01663          	bne	zero,t3,36dc <test_6>
    36d4:	fe209ee3          	bne	ra,sp,36d0 <test_5+0x14>
    36d8:	25c01463          	bne	zero,t3,3920 <fail>

000036dc <test_6>:
test_6():
    36dc:	00600e13          	li	t3,6
    36e0:	00000093          	li	ra,0
    36e4:	00000113          	li	sp,0
    36e8:	00209463          	bne	ra,sp,36f0 <test_6+0x14>
    36ec:	01c01463          	bne	zero,t3,36f4 <test_6+0x18>
    36f0:	23c01863          	bne	zero,t3,3920 <fail>
    36f4:	fe209ee3          	bne	ra,sp,36f0 <test_6+0x14>

000036f8 <test_7>:
test_7():
    36f8:	00700e13          	li	t3,7
    36fc:	00100093          	li	ra,1
    3700:	00100113          	li	sp,1
    3704:	00209463          	bne	ra,sp,370c <test_7+0x14>
    3708:	01c01463          	bne	zero,t3,3710 <test_7+0x18>
    370c:	21c01a63          	bne	zero,t3,3920 <fail>
    3710:	fe209ee3          	bne	ra,sp,370c <test_7+0x14>

00003714 <test_8>:
test_8():
    3714:	00800e13          	li	t3,8
    3718:	fff00093          	li	ra,-1
    371c:	fff00113          	li	sp,-1
    3720:	00209463          	bne	ra,sp,3728 <test_8+0x14>
    3724:	01c01463          	bne	zero,t3,372c <test_8+0x18>
    3728:	1fc01c63          	bne	zero,t3,3920 <fail>
    372c:	fe209ee3          	bne	ra,sp,3728 <test_8+0x14>

00003730 <test_9>:
test_9():
    3730:	00900e13          	li	t3,9
    3734:	00000213          	li	tp,0
    3738:	00000093          	li	ra,0
    373c:	00000113          	li	sp,0
    3740:	1e209063          	bne	ra,sp,3920 <fail>
    3744:	00120213          	addi	tp,tp,1 # 1 <reset_vec+0x1>
    3748:	00200293          	li	t0,2
    374c:	fe5216e3          	bne	tp,t0,3738 <test_9+0x8>

00003750 <test_10>:
test_10():
    3750:	00a00e13          	li	t3,10
    3754:	00000213          	li	tp,0
    3758:	00000093          	li	ra,0
    375c:	00000113          	li	sp,0
    3760:	00000013          	nop
    3764:	1a209e63          	bne	ra,sp,3920 <fail>
    3768:	00120213          	addi	tp,tp,1 # 1 <reset_vec+0x1>
    376c:	00200293          	li	t0,2
    3770:	fe5214e3          	bne	tp,t0,3758 <test_10+0x8>

00003774 <test_11>:
test_11():
    3774:	00b00e13          	li	t3,11
    3778:	00000213          	li	tp,0
    377c:	00000093          	li	ra,0
    3780:	00000113          	li	sp,0
    3784:	00000013          	nop
    3788:	00000013          	nop
    378c:	18209a63          	bne	ra,sp,3920 <fail>
    3790:	00120213          	addi	tp,tp,1 # 1 <reset_vec+0x1>
    3794:	00200293          	li	t0,2
    3798:	fe5212e3          	bne	tp,t0,377c <test_11+0x8>

0000379c <test_12>:
test_12():
    379c:	00c00e13          	li	t3,12
    37a0:	00000213          	li	tp,0
    37a4:	00000093          	li	ra,0
    37a8:	00000013          	nop
    37ac:	00000113          	li	sp,0
    37b0:	16209863          	bne	ra,sp,3920 <fail>
    37b4:	00120213          	addi	tp,tp,1 # 1 <reset_vec+0x1>
    37b8:	00200293          	li	t0,2
    37bc:	fe5214e3          	bne	tp,t0,37a4 <test_12+0x8>

000037c0 <test_13>:
test_13():
    37c0:	00d00e13          	li	t3,13
    37c4:	00000213          	li	tp,0
    37c8:	00000093          	li	ra,0
    37cc:	00000013          	nop
    37d0:	00000113          	li	sp,0
    37d4:	00000013          	nop
    37d8:	14209463          	bne	ra,sp,3920 <fail>
    37dc:	00120213          	addi	tp,tp,1 # 1 <reset_vec+0x1>
    37e0:	00200293          	li	t0,2
    37e4:	fe5212e3          	bne	tp,t0,37c8 <test_13+0x8>

000037e8 <test_14>:
test_14():
    37e8:	00e00e13          	li	t3,14
    37ec:	00000213          	li	tp,0
    37f0:	00000093          	li	ra,0
    37f4:	00000013          	nop
    37f8:	00000013          	nop
    37fc:	00000113          	li	sp,0
    3800:	12209063          	bne	ra,sp,3920 <fail>
    3804:	00120213          	addi	tp,tp,1 # 1 <reset_vec+0x1>
    3808:	00200293          	li	t0,2
    380c:	fe5212e3          	bne	tp,t0,37f0 <test_14+0x8>

00003810 <test_15>:
test_15():
    3810:	00f00e13          	li	t3,15
    3814:	00000213          	li	tp,0
    3818:	00000093          	li	ra,0
    381c:	00000113          	li	sp,0
    3820:	10209063          	bne	ra,sp,3920 <fail>
    3824:	00120213          	addi	tp,tp,1 # 1 <reset_vec+0x1>
    3828:	00200293          	li	t0,2
    382c:	fe5216e3          	bne	tp,t0,3818 <test_15+0x8>

00003830 <test_16>:
test_16():
    3830:	01000e13          	li	t3,16
    3834:	00000213          	li	tp,0
    3838:	00000093          	li	ra,0
    383c:	00000113          	li	sp,0
    3840:	00000013          	nop
    3844:	0c209e63          	bne	ra,sp,3920 <fail>
    3848:	00120213          	addi	tp,tp,1 # 1 <reset_vec+0x1>
    384c:	00200293          	li	t0,2
    3850:	fe5214e3          	bne	tp,t0,3838 <test_16+0x8>

00003854 <test_17>:
test_17():
    3854:	01100e13          	li	t3,17
    3858:	00000213          	li	tp,0
    385c:	00000093          	li	ra,0
    3860:	00000113          	li	sp,0
    3864:	00000013          	nop
    3868:	00000013          	nop
    386c:	0a209a63          	bne	ra,sp,3920 <fail>
    3870:	00120213          	addi	tp,tp,1 # 1 <reset_vec+0x1>
    3874:	00200293          	li	t0,2
    3878:	fe5212e3          	bne	tp,t0,385c <test_17+0x8>

0000387c <test_18>:
test_18():
    387c:	01200e13          	li	t3,18
    3880:	00000213          	li	tp,0
    3884:	00000093          	li	ra,0
    3888:	00000013          	nop
    388c:	00000113          	li	sp,0
    3890:	08209863          	bne	ra,sp,3920 <fail>
    3894:	00120213          	addi	tp,tp,1 # 1 <reset_vec+0x1>
    3898:	00200293          	li	t0,2
    389c:	fe5214e3          	bne	tp,t0,3884 <test_18+0x8>

000038a0 <test_19>:
test_19():
    38a0:	01300e13          	li	t3,19
    38a4:	00000213          	li	tp,0
    38a8:	00000093          	li	ra,0
    38ac:	00000013          	nop
    38b0:	00000113          	li	sp,0
    38b4:	00000013          	nop
    38b8:	06209463          	bne	ra,sp,3920 <fail>
    38bc:	00120213          	addi	tp,tp,1 # 1 <reset_vec+0x1>
    38c0:	00200293          	li	t0,2
    38c4:	fe5212e3          	bne	tp,t0,38a8 <test_19+0x8>

000038c8 <test_20>:
test_20():
    38c8:	01400e13          	li	t3,20
    38cc:	00000213          	li	tp,0
    38d0:	00000093          	li	ra,0
    38d4:	00000013          	nop
    38d8:	00000013          	nop
    38dc:	00000113          	li	sp,0
    38e0:	04209063          	bne	ra,sp,3920 <fail>
    38e4:	00120213          	addi	tp,tp,1 # 1 <reset_vec+0x1>
    38e8:	00200293          	li	t0,2
    38ec:	fe5212e3          	bne	tp,t0,38d0 <test_20+0x8>

000038f0 <test_21>:
test_21():
    38f0:	00100093          	li	ra,1
    38f4:	00009a63          	bnez	ra,3908 <test_21+0x18>
    38f8:	00108093          	addi	ra,ra,1
    38fc:	00108093          	addi	ra,ra,1
    3900:	00108093          	addi	ra,ra,1
    3904:	00108093          	addi	ra,ra,1
    3908:	00108093          	addi	ra,ra,1
    390c:	00108093          	addi	ra,ra,1
    3910:	00300e93          	li	t4,3
    3914:	01500e13          	li	t3,21
    3918:	01d09463          	bne	ra,t4,3920 <fail>
    391c:	03c01a63          	bne	zero,t3,3950 <pass>

00003920 <fail>:
fail():
    3920:	10000537          	lui	a0,0x10000
    3924:	04500593          	li	a1,69
    3928:	05200613          	li	a2,82
    392c:	04f00693          	li	a3,79
    3930:	00a00713          	li	a4,10
    3934:	00b52023          	sw	a1,0(a0) # 10000000 <end+0xfff2fb2>
    3938:	00c52023          	sw	a2,0(a0)
